ccollections
OrderedDict
p1
((lp2
(lp3
V14858224710.66766200.1405_ios.jpg
p4
aI24
aa(lp5
V14858224890.38973900.1621_ios.jpg
p6
aI83
aa(lp7
V14858226310.88668000.1261_android.jpg
p8
aI83
aa(lp9
V14858226620.08781000.1197_android.jpg
p10
aI32
aa(lp11
V14858227760.89526100.1249_android.jpg
p12
aI54
aa(lp13
V14858231040.59018500.1348_ios.jpg
p14
aI36
aa(lp15
V14858231250.58956700.1631_ios.jpg
p16
aI36
aa(lp17
V14858231500.76383900.1554_android.jpg
p18
aI37
aa(lp19
V14858234790.48035500.1243_ios.jpg
p20
aI48
aa(lp21
V14858236660.48060500.1236_android.jpg
p22
aI34
aa(lp23
V14858236800.36587400.1250_ios.jpg
p24
aI42
aa(lp25
V14858238070.43121100.1460_android_1485823805219.jpg
p26
aI29
aa(lp27
V14858239210.00631600.1930_android.jpg
p28
aI61
aa(lp29
V14858239830.73816100.1818_android.jpg
p30
aI34
aa(lp31
V14858241080.54536700.1399_android.jpg
p32
aI31
aa(lp33
V14858241340.03288600.1717_android.jpg
p34
aI49
aa(lp35
V14858243100.51712800.1027_ios.jpg
p36
aI106
aa(lp37
V14858245070.81739900.1185_android.jpg
p38
aI126
aa(lp39
V14858245560.23869400.1082_android.jpg
p40
aI113
aa(lp41
V14858245790.00418600.1984_android.jpg
p42
aI48
aa(lp43
V14858247550.20331100.1519_android.jpg
p44
aI83
aa(lp45
V14858248730.64357800.1945_android.jpg
p46
aI78
aa(lp47
V14858248980.09846200.1060_ios.jpg
p48
aI161
aa(lp49
V14858249240.29184500.1077_android.jpg
p50
aI119
aa(lp51
V14858250060.83311100.1682_android_1485824996888.jpg
p52
aI31
aa(lp53
V14858250320.91744300.1758_ios.jpg
p54
aI54
aa(lp55
V14858252150.28417900.1677_android_1485825209703.jpg
p56
aI70
aa(lp57
V14858253060.27336900.1843_android.jpg
p58
aI32
aa(lp59
V14858253320.30635600.1180_android.jpg
p60
aI41
aa(lp61
V14858254390.84312500.1076_android.jpg
p62
aI54
aa(lp63
V14858255080.62879400.1704_android.jpg
p64
aI154
aa(lp65
V14858255350.48862500.1248_android.jpg
p66
aI34
aa(lp67
V14858258920.28448000.1791_android_1485825888354.jpg
p68
aI42
aa(lp69
V14858259410.36752100.1227_android.jpg
p70
aI36
aa(lp71
V14858260670.33120400.1799_android_1485826057113.jpg
p72
aI92
aa(lp73
V14858261350.44451200.1959_android.jpg
p74
aI48
aa(lp75
V14858262390.28099300.1976_android.jpg
p76
aI44
aa(lp77
V14858263370.99066100.1064_android.jpg
p78
aI41
aa(lp79
V14858263820.00307500.1940_android.jpg
p80
aI27
aa(lp81
V14858265100.81714900.1659_ios.jpg
p82
aI67
aa(lp83
V14858265360.90657200.1663_android.jpg
p84
aI25
aa(lp85
V14858268370.18195700.1087_android.jpg
p86
aI84
aa(lp87
V14858269670.29849700.1591_android.jpg
p88
aI83
aa(lp89
V14858269970.39275000.1501_ios.jpg
p90
aI80
aa(lp91
V14858270220.74362300.1029_camera_ios.jpg
p92
aI57
aa(lp93
V14858270400.00495400.1100_android.jpg
p94
aI42
aa(lp95
V14858270810.21620400.1490_ios.jpg
p96
aI74
aa(lp97
V14858271200.29462800.1287_ios.jpg
p98
aI106
aa(lp99
V14858273300.85477500.1887_android_1485827330267.jpg
p100
aI75
aa(lp101
V14858274820.92692700.1417_android.jpg
p102
aI31
aa(lp103
V14858275340.49837400.1604_ios.jpg
p104
aI83
aa(lp105
V14858275840.53295000.1154_ios.jpg
p106
aI68
aa(lp107
V14858276790.80029000.1311_android.jpg
p108
aI48
aa(lp109
V14858277400.01365200.1610_ios.jpg
p110
aI29
aa(lp111
V14858278680.03523100.1724_android.jpg
p112
aI106
aa(lp113
V14858278970.50685400.1250_android.jpg
p114
aI80
aa(lp115
V14858279130.56830500.1367_android.jpg
p116
aI80
aa(lp117
V14858279580.00446000.1941_android_1485827954034.jpg
p118
aI61
aa(lp119
V14858279840.08465400.1897_android_1485827962644.jpg
p120
aI50
aa(lp121
V14858280550.93521100.1887_android.jpg
p122
aI42
aa(lp123
V14858281380.00911900.1834_android.jpg
p124
aI42
aa(lp125
V14858282500.53131400.1100_android.jpg
p126
aI54
aa(lp127
V14858282670.70615500.1478_android_1485828259054.jpg
p128
aI54
aa(lp129
V14858282870.18476900.1606_ios.jpg
p130
aI32
aa(lp131
V14858283300.03388100.1929_android.jpg
p132
aI87
aa(lp133
V14858283680.00100400.1105_android.jpg
p134
aI25
aa(lp135
V14858284050.39167400.1211_android.jpg
p136
aI87
aa(lp137
V14858284210.19017600.1587_ios.jpg
p138
aI44
aa(lp139
V14858284420.14112300.1727_android.jpg
p140
aI34
aa(lp141
V14858285020.26331700.1357_ios.jpg
p142
aI54
aa(lp143
V14858286500.18005400.1625_android.jpg
p144
aI125
aa(lp145
V14858286940.29133700.1924_android.jpg
p146
aI106
aa(lp147
V14858287310.83062000.1856_android.jpg
p148
aI125
aa(lp149
V14858289980.28748400.1874_android_1485828984257.jpg
p150
aI84
aa(lp151
V14858291060.00451900.1208_android.jpg
p152
aI87
aa(lp153
V14858291330.45424300.1864_ios.jpg
p154
aI29
aa(lp155
V14858294040.00227500.1527_android_1485829401306.jpg
p156
aI54
aa(lp157
V14858294830.40081500.1274_ios.jpg
p158
aI27
aa(lp159
V14858296560.54481200.1519_ios.jpg
p160
aI47
aa(lp161
V14858297600.17716900.1789_android.jpg
p162
aI89
aa(lp163
V14858299560.28128400.1149_android.jpg
p164
aI31
aa(lp165
V14858306080.51133700.1592_android_1485830595759.jpg
p166
aI127
aa(lp167
V14858306300.81095600.1514_android.jpg
p168
aI32
aa(lp169
V14858307610.00451800.1787_android.jpg
p170
aI57
aa(lp171
V14858307900.29520900.1388_ios.jpg
p172
aI34
aa(lp173
V14858308140.53787500.1927_android.jpg
p174
aI44
aa(lp175
V14858308450.09268600.1308_android.jpg
p176
aI48
aa(lp177
V14858308890.08287000.1642_android.jpg
p178
aI70
aa(lp179
V14858309150.80325500.1951_android.jpg
p180
aI57
aa(lp181
V14858311880.43891000.1221_android.jpg
p182
aI93
aa(lp183
V14858312610.00466500.1070_android.jpg
p184
aI95
aa(lp185
V14858313130.91021700.1620_android_1485831312675.jpg
p186
aI25
aa(lp187
V14858313420.09716700.1074_android.jpg
p188
aI309
aa(lp189
V14858313630.69742000.1800_ios.jpg
p190
aI32
aa(lp191
V14858313880.90196900.1215_android_1485831378115.jpg
p192
aI113
aa(lp193
V14858315090.27269200.1567_android_1485831506730.jpg
p194
aI44
aa(lp195
V14858315350.00613100.1585_android.jpg
p196
aI106
aa(lp197
V14858316430.38983600.1638_android.jpg
p198
aI29
aa(lp199
V14858316610.99442200.1571_android_1485831648900.jpg
p200
aI68
aa(lp201
V14858317900.81239200.1318_ios.jpg
p202
aI24
aa(lp203
V14858318570.06902500.1793_android.jpg
p204
aI54
aa(lp205
V14858320510.29428500.1523_android.jpg
p206
aI31
aa(lp207
V14858320660.51722100.1601_android_1485832274091.jpg
p208
aI54
aa(lp209
V14858321270.45376000.1366_android.jpg
p210
aI78
aa(lp211
V14858321560.42948600.1796_ios.jpg
p212
aI106
aa(lp213
V14858323120.91105900.1031_android.jpg
p214
aI84
aa(lp215
V14858323570.35243800.1341_android.jpg
p216
aI93
aa(lp217
V14858323820.16060100.1520_android_1485832378826.jpg
p218
aI64
aa(lp219
V14858325590.60906000.1573_android_1485832555811.jpg
p220
aI32
aa(lp221
V14858325960.30327000.1492_android.jpg
p222
aI106
aa(lp223
V14858326220.82869100.1569_android.jpg
p224
aI69
aa(lp225
V14858326740.34222400.1252_ios.jpg
p226
aI87
aa(lp227
V14858328310.98456000.1281_android_1485832808776.jpg
p228
aI48
aa(lp229
V14858328610.00266000.1592_android.jpg
p230
aI89
aa(lp231
V14858329930.38307800.1027_android.jpg
p232
aI56
aa(lp233
V14858331340.90854100.1618_android.jpg
p234
aI34
aa(lp235
V14858333580.95415400.1875_android.jpg
p236
aI154
aa(lp237
V14858335570.48505300.1737_android.jpg
p238
aI106
aa(lp239
V14858337680.12374300.1314_ios.jpg
p240
aI34
aa(lp241
V14858340210.89990500.1550_ios.jpg
p242
aI39
aa(lp243
V14858340590.24118000.1271_android_1485834057243.jpg
p244
aI106
aa(lp245
V14858341100.20370500.1590_ios.jpg
p246
aI73
aa(lp247
V14858343080.00808800.1904_ios.jpg
p248
aI51
aa(lp249
V14858343710.04309500.1673_android.jpg
p250
aI84
aa(lp251
V14858345820.02115000.1357_android.jpg
p252
aI106
aa(lp253
V14858346060.92945300.1908_android.jpg
p254
aI78
aa(lp255
V14858347290.53989000.1398_android.jpg
p256
aI39
aa(lp257
V14858348160.33745400.1796_ios.jpg
p258
aI54
aa(lp259
V14858349330.00329500.1374_android.jpg
p260
aI39
aa(lp261
V14858349720.32418900.1111_android.jpg
p262
aI34
aa(lp263
V14858351400.36092000.1155_android.jpg
p264
aI41
aa(lp265
V14858351890.16951300.1456_ios.jpg
p266
aI113
aa(lp267
V14858354520.61256000.1129_ios.jpg
p268
aI49
aa(lp269
V14858355840.25551500.1511_android.jpg
p270
aI51
aa(lp271
V14858356280.67643700.1685_ios.jpg
p272
aI67
aa(lp273
V14858357690.00122700.1573_android.jpg
p274
aI51
aa(lp275
V14858358190.39034100.1115_android.jpg
p276
aI106
aa(lp277
V14858358460.71509300.1589_android.jpg
p278
aI54
aa(lp279
V14858359430.07122400.1737_android_1485835927636.jpg
p280
aI80
aa(lp281
V14858363290.02598000.1031_android.jpg
p282
aI87
aa(lp283
V14858365420.12702700.1167_android.jpg
p284
aI83
aa(lp285
V14858366690.62728100.1403_android_1485836667399.jpg
p286
aI86
aa(lp287
V14858367640.24156700.1692_ios.jpg
p288
aI106
aa(lp289
V14858367820.00558900.1873_android.jpg
p290
aI98
aa(lp291
V14858368400.44624300.1894_android.jpg
p292
aI44
aa(lp293
V14858369330.03951700.1458_android_1485836924332.jpg
p294
aI91
aa(lp295
V14858369480.38072400.1128_android.jpg
p296
aI25
aa(lp297
V14858371350.33221400.1208_ios.jpg
p298
aI75
aa(lp299
V14858371970.17396800.1534_android.jpg
p300
aI42
aa(lp301
V14858373020.92330200.1126_android_1485837298433.jpg
p302
aI68
aa(lp303
V14858373330.86668700.1819_ios.jpg
p304
aI75
aa(lp305
V14858374040.41341400.1487_android.jpg
p306
aI72
aa(lp307
V14858374240.08326400.1263_android.jpg
p308
aI93
aa(lp309
V14858375690.01141200.1575_android.jpg
p310
aI25
aa(lp311
V14858377060.78417300.1144_android_1485837700706.jpg
p312
aI83
aa(lp313
V14858378860.49638200.1832_android.jpg
p314
aI32
aa(lp315
V14858379150.07193600.1347_android.jpg
p316
aI29
aa(lp317
V14858379580.87001100.1340_android.jpg
p318
aI43
aa(lp319
V14858380200.78007800.1093_android.jpg
p320
aI30
aa(lp321
V14858382040.27796000.1829_android_1485838196842.jpg
p322
aI107
aa(lp323
V14858382570.01650000.1635_ios.jpg
p324
aI24
aa(lp325
V14858382780.00722800.1805_android.jpg
p326
aI64
aa(lp327
V14858383760.29057300.1200_android.jpg
p328
aI54
aa(lp329
V14858385050.01125300.1551_android.jpg
p330
aI95
aa(lp331
V14858385580.51574500.1754_android.jpg
p332
aI49
aa(lp333
V14858386050.93933800.1444_android.jpg
p334
aI110
aa(lp335
V14858386690.03110200.1324_android.jpg
p336
aI54
aa(lp337
V14858386930.14947300.1638_ios.jpg
p338
aI52
aa(lp339
V14858388070.05580100.1689_android.jpg
p340
aI93
aa(lp341
V14858388620.27748300.1207_android.jpg
p342
aI50
aa(lp343
V14858389190.00162400.1656_android.jpg
p344
aI39
aa(lp345
V14858389620.29314100.1796_android.jpg
p346
aI42
aa(lp347
V14858391810.78148600.1040_ios.jpg
p348
aI27
aa(lp349
V14858392340.34227200.1370_android.jpg
p350
aI161
aa(lp351
V14858392520.93385800.1881_android.jpg
p352
aI37
aa(lp353
V14858392750.51085700.1724_android.jpg
p354
aI51
aa(lp355
V14858394330.53907800.1052_android.jpg
p356
aI54
aa(lp357
V14858396120.01639400.1329_android.jpg
p358
aI44
aa(lp359
V14858396710.00463500.1829_android.jpg
p360
aI37
aa(lp361
V14858398410.12888200.1493_android.jpg
p362
aI75
aa(lp363
V14858398700.54698900.1741_android.jpg
p364
aI75
aa(lp365
V14858400050.82897800.1608_android.jpg
p366
aI48
aa(lp367
V14858400310.71053700.1769_android.jpg
p368
aI87
aa(lp369
V14858400700.48028100.1700_android.jpg
p370
aI172
aa(lp371
V14858401020.00763900.1321_android.jpg
p372
aI50
aa(lp373
V14858401540.10987600.1343_android.jpg
p374
aI72
aa(lp375
V14858401890.32528600.1682_android.jpg
p376
aI172
aa(lp377
V14858403660.29262900.1826_android.jpg
p378
aI106
aa(lp379
V14858405730.02932800.1404_android.jpg
p380
aI126
aa(lp381
V14858406920.82154200.1969_android.jpg
p382
aI66
aa(lp383
V14858407150.50816800.1991_android.jpg
p384
aI89
aa(lp385
V14858412340.02764200.1618_android.jpg
p386
aI50
aa(lp387
V14858412780.46215600.1011_ios.jpg
p388
aI98
aa(lp389
V14858413730.54298600.1161_ios.jpg
p390
aI59
aa(lp391
V14858414010.14044900.1084_ios.jpg
p392
aI93
aa(lp393
V14858415100.98263900.1589_android.jpg
p394
aI74
aa(lp395
V14858415700.60662500.1824_android_1485841562989.jpg
p396
aI93
aa(lp397
V14858415910.29108900.1993_android.jpg
p398
aI44
aa(lp399
V14858416380.19944800.1407_ios.jpg
p400
aI38
aa(lp401
V14858416730.55305300.1758_android.jpg
p402
aI42
aa(lp403
V14858417150.16597500.1079_android.jpg
p404
aI105
aa(lp405
V14858417290.18102100.1739_ios.jpg
p406
aI36
aa(lp407
V14858418530.60692000.1115_android.jpg
p408
aI43
aa(lp409
V14858419740.35082700.1110_android.jpg
p410
aI35
aa(lp411
V14858420910.35423500.1737_android_1485842081299.jpg
p412
aI54
aa(lp413
V14858421160.93273800.1754_ios.jpg
p414
aI24
aa(lp415
V14858421900.75715600.1381_android.jpg
p416
aI68
aa(lp417
V14858423820.27943200.1258_android.jpg
p418
aI39
aa(lp419
V14858424060.23110700.1943_android.jpg
p420
aI32
aa(lp421
V14858425090.94877900.1893_ios.jpg
p422
aI172
aa(lp423
V14858426200.00618900.1326_android.jpg
p424
aI24
aa(lp425
V14858426470.66311700.1993_ios.jpg
p426
aI32
aa(lp427
V14858429870.05006200.1297_android_1485842982281.jpg
p428
aI29
aa(lp429
V14858430480.00798100.1999_android.jpg
p430
aI73
aa(lp431
V14858432830.29116700.1872_android.jpg
p432
aI86
aa(lp433
V14858436210.29739100.1244_android.jpg
p434
aI38
aa(lp435
V14858437020.92959400.1195_android.jpg
p436
aI42
aa(lp437
V14858437660.03494800.1428_android.jpg
p438
aI106
aa(lp439
V14858438120.29968300.1133_android.jpg
p440
aI93
aa(lp441
V14858438860.28837300.1660_android.jpg
p442
aI78
aa(lp443
V14858439090.11740600.1765_ios.jpg
p444
aI54
aa(lp445
V14858439270.00128100.1207_android.jpg
p446
aI50
aa(lp447
V14858441890.89470600.1605_android.jpg
p448
aI83
aa(lp449
V14858442110.06346000.1308_ios.jpg
p450
aI32
aa(lp451
V14858443250.02947200.1594_android.jpg
p452
aI45
aa(lp453
V14858443670.64920800.1662_android_1485844367493.jpg
p454
aI78
aa(lp455
V14858444300.11543100.1262_ios.jpg
p456
aI34
aa(lp457
V14858444580.01307800.1186_android.jpg
p458
aI34
aa(lp459
V14858445720.93792700.1557_android.jpg
p460
aI45
aa(lp461
V14858448120.60440900.1998_ios.jpg
p462
aI106
aa(lp463
V14858448510.66173200.1525_ios.jpg
p464
aI106
aa(lp465
V14858449360.85674700.1183_android_1485844933594.jpg
p466
aI90
aa(lp467
V14858449980.29285200.1231_android.jpg
p468
aI48
aa(lp469
V14858450650.09407500.1540_android.jpg
p470
aI38
aa(lp471
V14858451040.06293800.1905_android.jpg
p472
aI29
aa(lp473
V14858451730.07489300.1673_android.jpg
p474
aI83
aa(lp475
V14858452880.77604400.1430_android.jpg
p476
aI24
aa(lp477
V14858454270.28644300.1006_android.jpg
p478
aI86
aa(lp479
V14858454500.51877200.1224_android.jpg
p480
aI29
aa(lp481
V14858455130.72911000.1435_ios.jpg
p482
aI24
aa(lp483
V14858455360.03507800.1427_android.jpg
p484
aI78
aa(lp485
V14858455530.13329100.1542_android.jpg
p486
aI45
aa(lp487
V14858456500.84701700.1757_android.jpg
p488
aI45
aa(lp489
V14858457060.13598900.1652_ios.jpg
p490
aI30
aa(lp491
V14858457670.01715900.1752_ios.jpg
p492
aI107
aa(lp493
V14858458060.10218700.1793_android.jpg
p494
aI32
aa(lp495
V14858458240.41019900.1196_android.jpg
p496
aI39
aa(lp497
V14858458700.05142800.1233_ios.jpg
p498
aI25
aa(lp499
V14858463300.17322200.1133_android.jpg
p500
aI51
aa(lp501
V14858463970.91200500.1601_ios.jpg
p502
aI106
aa(lp503
V14858465540.86954300.1829_android.jpg
p504
aI69
aa(lp505
V14858467520.56217300.1544_android.jpg
p506
aI86
aa(lp507
V14858467650.65168400.1749_android_1485846751835.jpg
p508
aI124
aa(lp509
V14858468820.01148300.1218_ios.jpg
p510
aI68
aa(lp511
V14858469050.00313800.1345_android_1485846901552.jpg
p512
aI106
aa(lp513
V14858469640.65104600.1317_ios.jpg
p514
aI32
aa(lp515
V14858470110.45644700.1323_ios.jpg
p516
aI89
aa(lp517
V14858470840.41272900.1176_android.jpg
p518
aI32
aa(lp519
V14858471160.90109600.1566_ios.jpg
p520
aI32
aa(lp521
V14858471440.14907200.1606_android_1485847139710.jpg
p522
aI45
aa(lp523
V14858471660.82465200.1656_android.jpg
p524
aI25
aa(lp525
V14858473520.50430800.1912_ios.jpg
p526
aI25
aa(lp527
V14858473770.89473500.1367_android.jpg
p528
aI110
aa(lp529
V14858475080.55597500.1686_android.jpg
p530
aI49
aa(lp531
V14858475670.00676600.1713_android_1485847558997.jpg
p532
aI86
aa(lp533
V14858476490.88028500.1494_ios.jpg
p534
aI34
aa(lp535
V14858479590.64554000.1134_ios.jpg
p536
aI25
aa(lp537
V14858481110.88709000.1664_android_1485848104591.jpg
p538
aI45
aa(lp539
V14858481460.43726200.1596_ios.jpg
p540
aI48
aa(lp541
V14858481910.62247500.1554_android.jpg
p542
aI84
aa(lp543
V14858483010.67366500.1578_ios.jpg
p544
aI106
aa(lp545
V14858484080.07309500.1944_android.jpg
p546
aI106
aa(lp547
V14858484280.01740400.1070_ios.jpg
p548
aI87
aa(lp549
V14858485170.01646200.1673_android.jpg
p550
aI44
aa(lp551
V14858486390.17879100.1214_ios.jpg
p552
aI78
aa(lp553
V14858486790.14527900.1987_android.jpg
p554
aI25
aa(lp555
V14858487090.23954700.1458_android_1485848705513.jpg
p556
aI77
aa(lp557
V14858487280.08584400.1914_android.jpg
p558
aI25
aa(lp559
V14858487440.00418900.1682_android.jpg
p560
aI106
aa(lp561
V14858489980.16729600.1618_android.jpg
p562
aI52
aa(lp563
V14858490170.00542700.1914_android.jpg
p564
aI73
aa(lp565
V14858490520.92376600.1348_android.jpg
p566
aI75
aa(lp567
V14858490910.81697800.1142_ios.jpg
p568
aI34
aa(lp569
V14858491130.85583900.1583_android_1485849109999.jpg
p570
aI95
aa(lp571
V14858491560.07100200.1346_android_1485849045890.jpg
p572
aI42
aa(lp573
V14858492210.29219500.1920_android_1485849217225.jpg
p574
aI32
aa(lp575
V14858492480.50961200.1006_android_1485849244064.jpg
p576
aI32
aa(lp577
V14858492950.18486100.1112_ios.jpg
p578
aI33
aa(lp579
V14858495140.34063700.1750_android_1485849510362.jpg
p580
aI50
aa(lp581
V14858496780.24324100.1462_android.jpg
p582
aI89
aa(lp583
V14858498580.12256900.1238_ios.jpg
p584
aI54
aa(lp585
V14858500430.87006400.1892_android.jpg
p586
aI106
aa(lp587
V14858500670.47433000.1280_android.jpg
p588
aI50
aa(lp589
V14858502940.78136900.1798_android.jpg
p590
aI113
aa(lp591
V14858503150.00909600.1230_android.jpg
p592
aI51
aa(lp593
V14858504440.30673700.1643_android.jpg
p594
aI58
aa(lp595
V14858504900.97458000.1002_ios.jpg
p596
aI74
aa(lp597
V14858505930.46020500.1669_ios.jpg
p598
aI74
aa(lp599
V14858506290.60525200.1753_ios.jpg
p600
aI86
aa(lp601
V14858506390.83241000.1528_ios.jpg
p602
aI27
aa(lp603
V14858507950.19438900.1042_android.jpg
p604
aI95
aa(lp605
V14858509910.95147000.1801_android.jpg
p606
aI34
aa(lp607
V14858511410.02328900.1095_android.jpg
p608
aI68
aa(lp609
V14858511790.73498600.1444_ios.jpg
p610
aI32
aa(lp611
V14858512390.01219600.1457_ios.jpg
p612
aI106
aa(lp613
V14858512710.16690300.1457_ios.jpg
p614
aI106
aa(lp615
V14858513010.13648800.1965_android.jpg
p616
aI90
aa(lp617
V14858513810.43559400.1051_ios.jpg
p618
aI29
aa(lp619
V14858515620.72729300.1063_android_1485851453514.jpg
p620
aI42
aa(lp621
V14858517240.00373400.1485_android_1485851719736.jpg
p622
aI51
aa(lp623
V14858517420.42499900.1521_ios.jpg
p624
aI29
aa(lp625
V14858517700.41565700.1381_android_1485851766721.jpg
p626
aI93
aa(lp627
V14858518020.72946900.1372_ios.jpg
p628
aI87
aa(lp629
V14858518480.76735800.1753_android.jpg
p630
aI44
aa(lp631
V14858518630.27893500.1595_android_1485851755253.jpg
p632
aI42
aa(lp633
V14858519020.19416100.1250_ios.jpg
p634
aI87
aa(lp635
V14858520020.62569800.1203_android.jpg
p636
aI43
aa(lp637
V14858520640.68402200.1333_android.jpg
p638
aI50
aa(lp639
V14858521330.44489400.1986_android.jpg
p640
aI106
aa(lp641
V14858522440.80497400.1841_ios.jpg
p642
aI86
aa(lp643
V14858523050.28999100.1051_android_1485852301365.jpg
p644
aI37
aa(lp645
V14858524230.57024600.1720_ios.jpg
p646
aI75
aa(lp647
V14858524600.43690000.1839_20170131164805_wp.jpg
p648
aI29
aa(lp649
V14858525650.78792600.1855_ios.jpg
p650
aI42
aa(lp651
V14858526790.22089600.1163_android.jpg
p652
aI86
aa(lp653
V14858526990.00563500.1083_android.jpg
p654
aI154
aa(lp655
V14858527160.09171900.1891_android.jpg
p656
aI25
aa(lp657
V14858527470.15500000.1052_android.jpg
p658
aI86
aa(lp659
V14858528070.90664600.1889_android.jpg
p660
aI57
aa(lp661
V14858528820.67335800.1298_android_1485852880442.jpg
p662
aI127
aa(lp663
V14858529640.72264900.1242_android_1485852963077.jpg
p664
aI106
aa(lp665
V14858530300.00490400.1974_android.jpg
p666
aI42
aa(lp667
V14858530490.74577300.1935_ios.jpg
p668
aI95
aa(lp669
V14858530960.11700100.1627_android_1485853090483.jpg
p670
aI105
aa(lp671
V14858533280.52731200.1727_ios.jpg
p672
aI106
aa(lp673
V14858533850.05257400.1575_android.jpg
p674
aI64
aa(lp675
V14858534650.13837600.1136_android.jpg
p676
aI90
aa(lp677
V14858535680.42934600.1904_ios.jpg
p678
aI106
aa(lp679
V14858535810.19245200.1626_ios.jpg
p680
aI25
aa(lp681
V14858538200.11042400.1861_ios.jpg
p682
aI75
aa(lp683
V14858538680.78045500.1995_ios.jpg
p684
aI45
aa(lp685
V14858539130.86116200.1601_android.jpg
p686
aI75
aa(lp687
V14858539240.93385700.1107_android.jpg
p688
aI90
aa(lp689
V14858539410.32181900.1209_android.jpg
p690
aI74
aa(lp691
V14858540710.93146400.1297_ios.jpg
p692
aI24
aa(lp693
V14858540930.26411600.1598_android.jpg
p694
aI60
aa(lp695
V14858542220.92562700.1600_ios.jpg
p696
aI66
aa(lp697
V14858543320.63842700.1404_ios.jpg
p698
aI54
aa(lp699
V14858543830.12995600.1871_android.jpg
p700
aI86
aa(lp701
V14858544500.07647900.1940_android.jpg
p702
aI61
aa(lp703
V14858544630.32710900.1755_android.jpg
p704
aI61
aa(lp705
V14858545190.04327300.1319_android.jpg
p706
aI93
aa(lp707
V14858546380.09877700.1057_android.jpg
p708
aI89
aa(lp709
V14858546750.09943700.1027_ios.jpg
p710
aI92
aa(lp711
V14858547940.36189200.1923_android.jpg
p712
aI93
aa(lp713
V14858550360.54376000.1868_android.jpg
p714
aI106
aa(lp715
V14858552230.04199300.1894_ios.jpg
p716
aI73
aa(lp717
V14858552440.49066400.1033_ios.jpg
p718
aI106
aa(lp719
V14858552680.76749300.1263_android.jpg
p720
aI34
aa(lp721
V14858553920.88095900.1765_ios.jpg
p722
aI50
aa(lp723
V14858555080.06870300.1324_ios.jpg
p724
aI34
aa(lp725
V14858556030.08331700.1669_android.jpg
p726
aI86
aa(lp727
V14858557240.00561800.1529_android.jpg
p728
aI34
aa(lp729
V14858559410.26308700.1156_ios.jpg
p730
aI77
aa(lp731
V14858559700.37116500.1437_android.jpg
p732
aI127
aa(lp733
V14858560020.00549200.1467_android.jpg
p734
aI50
aa(lp735
V14858560460.10109000.1362_android.jpg
p736
aI69
aa(lp737
V14858560610.60741200.1285_ios.jpg
p738
aI87
aa(lp739
V14858560970.06902700.1039_android.jpg
p740
aI96
aa(lp741
V14858561390.17882700.1299_android_1485856123218.jpg
p742
aI48
aa(lp743
V14858561570.10088800.1921_ios.jpg
p744
aI47
aa(lp745
V14858561750.47458600.1321_android.jpg
p746
aI24
aa(lp747
V14858562030.06548500.1923_android_1485856195773.jpg
p748
aI80
aa(lp749
V14858564640.46876600.1473_ios.jpg
p750
aI149
aa(lp751
V14858564950.00263400.1017_android_1485856489108.jpg
p752
aI31
aa(lp753
V14858567140.04198600.1657_ios.jpg
p754
aI31
aa(lp755
V14858567550.28724400.1569_android.jpg
p756
aI66
aa(lp757
V14858567980.00718700.1605_android.jpg
p758
aI93
aa(lp759
V14858568550.51846800.1455_ios.jpg
p760
aI31
aa(lp761
V14858568720.36524900.1103_ios.jpg
p762
aI32
aa(lp763
V14858569700.45720100.1349_ios.jpg
p764
aI75
aa(lp765
V14858569990.84131400.1616_android.jpg
p766
aI93
aa(lp767
V14858571040.28717400.1782_android.jpg
p768
aI68
aa(lp769
V14858572710.49382400.1822_android.jpg
p770
aI106
aa(lp771
V14858573070.87879000.1731_android.jpg
p772
aI86
aa(lp773
V14858575150.51350000.1937_android.jpg
p774
aI110
aa(lp775
V14858575610.47122500.1468_android.jpg
p776
aI106
aa(lp777
V14858576660.99650500.1960_ios.jpg
p778
aI32
aa(lp779
V14858578550.53852100.1935_android.jpg
p780
aI106
aa(lp781
V14858579080.57274900.1189_android.jpg
p782
aI126
aa(lp783
V14858579260.14094000.1567_android_1485857937381.jpg
p784
aI27
aa(lp785
V14858579640.16129400.1962_android.jpg
p786
aI80
aa(lp787
V14858579850.85214900.1666_android.jpg
p788
aI25
aa(lp789
V14858580530.82126800.1252_android.jpg
p790
aI60
aa(lp791
V14858583450.59341400.1352_android.jpg
p792
aI25
aa(lp793
V14858583650.28598000.1843_android_1485858357048.jpg
p794
aI67
aa(lp795
V14858584050.20493800.1363_ios.jpg
p796
aI98
aa(lp797
V14858585000.39424100.1286_android.jpg
p798
aI83
aa(lp799
V14858586050.76958300.1477_android.jpg
p800
aI108
aa(lp801
V14858586770.21958900.1823_android_1485858576254.jpg
p802
aI113
aa(lp803
V14858588060.38842000.1033_android.jpg
p804
aI106
aa(lp805
V14858588390.66459200.1842_ios.jpg
p806
aI25
aa(lp807
V14858590770.87113100.1231_ios.jpg
p808
aI86
aa(lp809
V14858594890.51192200.1030_android.jpg
p810
aI32
aa(lp811
V14858595420.63873300.1977_ios.jpg
p812
aI83
aa(lp813
V14858598120.26305500.1269_android.jpg
p814
aI104
aa(lp815
V14858600460.00821300.1961_android.jpg
p816
aI34
aa(lp817
V14858606790.51547800.1645_android.jpg
p818
aI106
aa(lp819
V14858606980.02869100.1611_ios.jpg
p820
aI27
aa(lp821
V14858607490.21925000.1666_ios.jpg
p822
aI29
aa(lp823
V14858607620.48642000.1141_android_1485860762015.jpg
p824
aI50
aa(lp825
V14858607930.59621300.1245_android_camera.jpg
p826
aI32
aa(lp827
V14858608170.50018700.1214_ios.jpg
p828
aI27
aa(lp829
V14858609630.35487700.1433_android.jpg
p830
aI29
aa(lp831
V14858611040.47704300.1540_ios.jpg
p832
aI44
aa(lp833
V14858612030.29158000.1517_android.jpg
p834
aI172
aa(lp835
V14858612230.01612300.1415_android.jpg
p836
aI36
aa(lp837
V14858612690.27406600.1053_android.jpg
p838
aI73
aa(lp839
V14858612900.29029300.1885_android.jpg
p840
aI106
aa(lp841
V14858613140.12101500.1801_ios.jpg
p842
aI54
aa(lp843
V14858613820.54088100.1220_ios.jpg
p844
aI32
aa(lp845
V14858613960.00669300.1018_android.jpg
p846
aI29
aa(lp847
V14858614550.55146500.1496_android.jpg
p848
aI57
aa(lp849
V14858616760.73753400.1362_android.jpg
p850
aI106
aa(lp851
V14858617650.78167600.1512_ios.jpg
p852
aI106
aa(lp853
V14858619520.69170900.1769_android.jpg
p854
aI86
aa(lp855
V14858621020.55848400.1389_android_1485862097068.jpg
p856
aI127
aa(lp857
V14858621440.03413600.1682_android_1485862139870.jpg
p858
aI25
aa(lp859
V14858623450.14873700.1653_ios.jpg
p860
aI35
aa(lp861
V14858624230.47633800.1124_android_1485862415706.jpg
p862
aI37
aa(lp863
V14858624680.57836900.1687_android.jpg
p864
aI78
aa(lp865
V14858626150.22081200.1548_android.jpg
p866
aI90
aa(lp867
V14858626350.13059400.1996_android.jpg
p868
aI80
aa(lp869
V14858627440.57140600.1704_android.jpg
p870
aI86
aa(lp871
V14858627850.00469900.1219_android.jpg
p872
aI54
aa(lp873
V14858628230.83878000.1258_ios.jpg
p874
aI87
aa(lp875
V14858628480.55099600.1035_ios.jpg
p876
aI30
aa(lp877
V14858629820.29464800.1506_android.jpg
p878
aI86
aa(lp879
V14858630990.65645500.1414_android.jpg
p880
aI51
aa(lp881
V14858631550.02416200.1079_android.jpg
p882
aI42
aa(lp883
V14858631700.63726600.1073_android.jpg
p884
aI42
aa(lp885
V14858632320.66343800.1966_ios.jpg
p886
aI73
aa(lp887
V14858633190.05511900.1655_ios.jpg
p888
aI172
aa(lp889
V14858633960.12928600.1071_android_1485863381722.jpg
p890
aI64
aa(lp891
V14858634190.35978300.1761_android.jpg
p892
aI106
aa(lp893
V14858635420.90166300.1240_android.jpg
p894
aI106
aa(lp895
V14858635620.28509500.1221_android.jpg
p896
aI106
aa(lp897
V14858636090.44888400.1644_android.jpg
p898
aI77
aa(lp899
V14858637300.12367800.1627_android_1485863728214.jpg
p900
aI41
aa(lp901
V14858637510.59612100.1940_ios.jpg
p902
aI30
aa(lp903
V14858637800.00163400.1930_android.jpg
p904
aI83
aa(lp905
V14858638180.59758700.1897_android.jpg
p906
aI74
aa(lp907
V14858638830.45839300.1633_android_1485863881212.jpg
p908
aI122
aa(lp909
V14858639130.16113600.1214_ios.jpg
p910
aI29
aa(lp911
V14858640000.19020000.1184_android_1485863997509.jpg
p912
aI122
aa(lp913
V14858640560.13201200.1332_android.jpg
p914
aI50
aa(lp915
V14858640840.30084200.1939_android_1485864082486.jpg
p916
aI122
aa(lp917
V14858642390.88395300.1477_ios.jpg
p918
aI45
aa(lp919
V14858642700.22912900.1518_android.jpg
p920
aI55
aa(lp921
V14858643070.25783400.1067_android.jpg
p922
aI93
aa(lp923
V14858644390.26925100.1483_android_1485864425383.jpg
p924
aI106
aa(lp925
V14858645300.60050500.1406_android.jpg
p926
aI32
aa(lp927
V14858645750.36503100.1219_ios.jpg
p928
aI31
aa(lp929
V14858647160.44127100.1734_ios.jpg
p930
aI25
aa(lp931
V14858650580.28923500.1634_ios.jpg
p932
aI29
aa(lp933
V14858651040.02634900.1077_ios.jpg
p934
aI29
aa(lp935
V14858651670.85231300.1509_android.jpg
p936
aI43
aa(lp937
V14858652330.00573700.1780_android.jpg
p938
aI106
aa(lp939
V14858652930.49211600.1661_android.jpg
p940
aI106
aa(lp941
V14858654460.53952500.1939_android.jpg
p942
aI77
aa(lp943
V14858654760.48510900.1535_ios.jpg
p944
aI106
aa(lp945
V14858655040.28839500.1807_android.jpg
p946
aI25
aa(lp947
V14858657660.25850100.1178_android.jpg
p948
aI86
aa(lp949
V14858657950.27246300.1722_android.jpg
p950
aI83
aa(lp951
V14858658450.08201000.1020_ios.jpg
p952
aI50
aa(lp953
V14858658870.01955800.1179_android.jpg
p954
aI27
aa(lp955
V14858659460.94289700.1615_ios.jpg
p956
aI93
aa(lp957
V14858660880.51192300.1432_android.jpg
p958
aI114
aa(lp959
V14858663540.06576900.1241_android_1485866314311.jpg
p960
aI48
aa(lp961
V14858669170.55147500.1994_android.jpg
p962
aI30
aa(lp963
V14858670370.50419400.1341_android.jpg
p964
aI38
aa(lp965
V14858670810.01339800.1348_android.jpg
p966
aI86
aa(lp967
V14858671470.02581200.1794_android.jpg
p968
aI51
aa(lp969
V14858671830.15641100.1996_android.jpg
p970
aI172
aa(lp971
V14858673160.59715000.1698_ios.jpg
p972
aI106
aa(lp973
V14858673970.96649500.1277_android_1485867396423.jpg
p974
aI83
aa(lp975
V14858675010.59386600.1765_ios.jpg
p976
aI106
aa(lp977
V14858679910.51946500.1911_android.jpg
p978
aI42
aa(lp979
V14858681570.47245000.1305_android.jpg
p980
aI25
aa(lp981
V14858684610.88022700.1752_android.jpg
p982
aI78
aa(lp983
V14858689060.12929800.1992_android_1485868902588.jpg
p984
aI25
aa(lp985
V14858690590.84958300.1191_android.jpg
p986
aI126
aa(lp987
V14858690800.81841000.1609_android_1485869075677.jpg
p988
aI69
aa(lp989
V14858691670.19182400.1180_android.jpg
p990
aI43
aa(lp991
V14858691970.46201100.1283_android.jpg
p992
aI68
aa(lp993
V14858692540.15457400.1796_android.jpg
p994
aI50
aa(lp995
V14858693330.00726900.1787_android_1485869327905.jpg
p996
aI98
aa(lp997
V14858693670.53067800.1563_ios.jpg
p998
aI54
aa(lp999
V14858694830.18825800.1775_android.jpg
p1000
aI106
aa(lp1001
V14858695820.45711600.1500_android.jpg
p1002
aI43
aa(lp1003
V14858696040.40906000.1766_android.jpg
p1004
aI78
aa(lp1005
V14858696400.00273000.1199_android.jpg
p1006
aI43
aa(lp1007
V14858697700.90628800.1813_android.jpg
p1008
aI50
aa(lp1009
V14858698500.42150000.1966_ios.jpg
p1010
aI86
aa(lp1011
V14858698850.45377400.1969_android_1485869877010.jpg
p1012
aI48
aa(lp1013
V14858699050.00753800.1263_android_1485869899121.jpg
p1014
aI74
aa(lp1015
V14858700470.29165100.1209_android.jpg
p1016
aI106
aa(lp1017
V14858701970.43911600.1443_android.jpg
p1018
aI106
aa(lp1019
V14858702780.95992500.1470_android_1485870273124.jpg
p1020
aI86
aa(lp1021
V14858703710.00553600.1978_android.jpg
p1022
aI34
aa(lp1023
V14858703980.51215500.1643_ios.jpg
p1024
aI32
aa(lp1025
V14858704260.67423600.1114_android_1485870403583.jpg
p1026
aI42
aa(lp1027
V14858705600.72601200.1948_android.jpg
p1028
aI34
aa(lp1029
V14858706800.73835800.1344_android_1485870672360.jpg
p1030
aI80
aa(lp1031
V14858708200.00222600.1068_ios.jpg
p1032
aI54
aa(lp1033
V14858709370.24469600.1176_android.jpg
p1034
aI48
aa(lp1035
V14858713020.66606700.1344_ios.jpg
p1036
aI45
aa(lp1037
V14858713280.37359300.1578_ios.jpg
p1038
aI44
aa(lp1039
V14858713660.77405200.1432_android.jpg
p1040
aI114
aa(lp1041
V14858714250.48381500.1672_ios.jpg
p1042
aI24
aa(lp1043
V14858715370.08426700.1776_android.jpg
p1044
aI89
aa(lp1045
V14858716390.99015000.1556_camera_ios.jpg
p1046
aI106
aa(lp1047
V14858717970.74112900.1937_android_1485871794412.jpg
p1048
aI31
aa(lp1049
V14858718830.39233200.1838_ios.jpg
p1050
aI77
aa(lp1051
V14858719570.15090500.1043_android.jpg
p1052
aI34
aa(lp1053
V14858719800.03465500.1960_android.jpg
p1054
aI50
aa(lp1055
V14858725890.94205200.1873_android.jpg
p1056
aI26
aa(lp1057
V14858731330.78082700.1499_android_1485873131583.jpg
p1058
aI64
aa(lp1059
V14858732860.01560200.1926_android.jpg
p1060
aI125
aa(lp1061
V14858733100.35089100.1237_ios.jpg
p1062
aI24
aa(lp1063
V14858733280.27471200.1397_ios.jpg
p1064
aI24
aa(lp1065
V14858734260.81906300.1848_android.jpg
p1066
aI50
aa(lp1067
V14858735220.29037800.1980_android_1485873513949.jpg
p1068
aI50
aa(lp1069
V14858736350.82697800.1984_android_1485873631049.jpg
p1070
aI30
aa(lp1071
V14858736900.28724500.1416_android.jpg
p1072
aI106
aa(lp1073
V14858742300.15010500.1906_ios.jpg
p1074
aI27
aa(lp1075
V14858743040.83334700.1104_ios.jpg
p1076
aI34
aa(lp1077
V14858743330.85588300.1074_android.jpg
p1078
aI50
aa(lp1079
V14858744170.89641300.1590_android.jpg
p1080
aI57
aa(lp1081
V14858744710.93095400.1579_android.jpg
p1082
aI66
aa(lp1083
V14858746760.69404900.1271_ios.jpg
p1084
aI55
aa(lp1085
V14858747110.05325200.1475_android.jpg
p1086
aI64
aa(lp1087
V14858747940.65874600.1174_android.jpg
p1088
aI68
aa(lp1089
V14858751380.43732300.1871_android_1485875037138.jpg
p1090
aI56
aa(lp1091
V14858762980.87553500.1088_android.jpg
p1092
aI49
aa(lp1093
V14858765400.26318600.1851_android.jpg
p1094
aI50
aa(lp1095
V14858771520.44963400.1090_android.jpg
p1096
aI55
aa(lp1097
V14858777530.12585200.1073_ios.jpg
p1098
aI51
aa(lp1099
V14858780380.35718900.1245_ios.jpg
p1100
aI106
aa(lp1101
V14858781340.15680200.1446_android.jpg
p1102
aI50
aa(lp1103
V14858785730.44832100.1660_ios.jpg
p1104
aI45
aa(lp1105
V14858786250.27344400.1476_android_1485878621182.jpg
p1106
aI45
aa(lp1107
V14858787090.83800200.1877_android.jpg
p1108
aI77
aa(lp1109
V14858788230.53949500.1238_ios.jpg
p1110
aI56
aa(lp1111
V14858796710.14214900.1369_android.jpg
p1112
aI83
aa(lp1113
V14858799540.01223400.1865_android.jpg
p1114
aI85
aa(lp1115
V14858800680.18106500.1918_ios.jpg
p1116
aI83
aa(lp1117
V14858802550.28457400.1280_android.jpg
p1118
aI36
aa(lp1119
V14858806940.00220700.1959_android.jpg
p1120
aI27
aa(lp1121
V14858807910.15588800.1716_ios.jpg
p1122
aI145
aa(lp1123
V14858818150.68302000.1075_ios.jpg
p1124
aI205
aa(lp1125
V14858836190.10845300.1080_android.jpg
p1126
aI131
aa(lp1127
V14858846490.29190800.1066_ios.jpg
p1128
aI40
aa(lp1129
V14858862950.57166000.1918_ios.jpg
p1130
aI158
aa(lp1131
V14858864910.63721400.1367_ios.jpg
p1132
aI52
aa(lp1133
V14858868320.43586700.1441_ios.jpg
p1134
aI44
aa(lp1135
V14858943490.67804100.1098_android.jpg
p1136
aI48
aa(lp1137
V14858966410.52951000.1785_android_1485896636597.jpg
p1138
aI71
aa(lp1139
V14858977510.89526100.1091_android.jpg
p1140
aI62
aa(lp1141
V14858994840.43096200.1917_ios.jpg
p1142
aI83
aa(lp1143
V14859006740.83152900.1576_ios.jpg
p1144
aI78
aa(lp1145
V14859008280.68438900.1289_android.jpg
p1146
aI57
aa(lp1147
V14859009460.07008600.1407_ios.jpg
p1148
aI58
aa(lp1149
V14859010410.86944300.1866_android.jpg
p1150
aI41
aa(lp1151
V14859012020.86765900.1902_ios.jpg
p1152
aI89
aa(lp1153
V14859013840.00250100.1423_android.jpg
p1154
aI46
aa(lp1155
V14859017700.84724100.1552_android_1485901751032.jpg
p1156
aI45
aa(lp1157
V14859022350.03051300.1684_ios.jpg
p1158
aI83
aa(lp1159
V14859023030.79297300.1764_android.jpg
p1160
aI172
aa(lp1161
V14859023910.76365500.1899_android.jpg
p1162
aI39
aa(lp1163
V14859026250.52011600.1324_android_1485902611624.jpg
p1164
aI39
aa(lp1165
V14859028030.96709300.1793_android.jpg
p1166
aI51
aa(lp1167
V14859031700.70564300.1801_android_1485903142972.jpg
p1168
aI85
aa(lp1169
V14859032620.03791400.1636_android_1485903251508.jpg
p1170
aI146
aa(lp1171
V14859032910.92995200.1573_android_1485903283037.jpg
p1172
aI86
aa(lp1173
V14859034580.50472800.1456_android.jpg
p1174
aI51
aa(lp1175
V14859035740.41049200.1698_android.jpg
p1176
aI99
aa(lp1177
V14859036450.00404700.1404_android_1485903641711.jpg
p1178
aI83
aa(lp1179
V14859037280.28822300.1573_android.jpg
p1180
aI118
aa(lp1181
V14859038110.00301100.1663_android.jpg
p1182
aI118
aa(lp1183
V14859039790.27677100.1281_android.jpg
p1184
aI83
aa(lp1185
V14859040680.00362100.1944_android.jpg
p1186
aI145
aa(lp1187
V14859041170.71228500.1063_ios.jpg
p1188
aI35
aa(lp1189
V14859041460.72521600.1151_ios.jpg
p1190
aI42
aa(lp1191
V14859042680.24602300.1429_android.jpg
p1192
aI205
aa(lp1193
V14859043030.00805000.1927_android.jpg
p1194
aI32
aa(lp1195
V14859043210.00177000.1436_android.jpg
p1196
aI205
aa(lp1197
V14859043810.87425000.1233_android.jpg
p1198
aI85
aa(lp1199
V14859046270.48629200.1075_android.jpg
p1200
aI190
aa(lp1201
V14859046750.90976000.1555_android.jpg
p1202
aI145
aa(lp1203
V14859047600.25439700.1855_ios.jpg
p1204
aI145
aa(lp1205
V14859047890.86152200.1739_ios.jpg
p1206
aI41
aa(lp1207
V14859048190.08643500.1320_android.jpg
p1208
aI99
aa(lp1209
V14859048430.36775200.1160_android_1485904832087.jpg
p1210
aI32
aa(lp1211
V14859049360.41984300.1253_ios.jpg
p1212
aI84
aa(lp1213
V14859050040.36391600.1789_ios.jpg
p1214
aI99
aa(lp1215
V14859050920.29705900.1133_android.jpg
p1216
aI27
aa(lp1217
V14859051410.51394300.1724_android_1485905135724.jpg
p1218
aI40
aa(lp1219
V14859051560.41077400.1334_android.jpg
p1220
aI39
aa(lp1221
V14859053810.04438200.1633_android_camera.jpg
p1222
aI107
aa(lp1223
V14859054090.30423500.1800_android.jpg
p1224
aI27
aa(lp1225
V14859055360.28104400.1252_android.jpg
p1226
aI108
aa(lp1227
V14859056800.10417900.1101_android.jpg
p1228
aI85
aa(lp1229
V14859057290.35570700.1304_android.jpg
p1230
aI83
aa(lp1231
V14859057470.25029600.1317_android.jpg
p1232
aI108
aa(lp1233
V14859058080.78282500.1966_ios.jpg
p1234
aI83
aa(lp1235
V14859058280.25984500.1586_android.jpg
p1236
aI118
aa(lp1237
V14859058470.68382300.1377_ios.jpg
p1238
aI47
aa(lp1239
V14859058660.00186400.1623_android.jpg
p1240
aI147
aa(lp1241
V14859058900.85137300.1517_ios.jpg
p1242
aI79
aa(lp1243
V14859060200.67369700.1816_ios.jpg
p1244
aI57
aa(lp1245
V14859060850.56551500.1535_ios.jpg
p1246
aI53
aa(lp1247
V14859061060.29194300.1024_android.jpg
p1248
aI51
aa(lp1249
V14859061220.86054900.1587_ios.jpg
p1250
aI53
aa(lp1251
V14859061370.13820000.1196_android.jpg
p1252
aI61
aa(lp1253
V14859061950.71994000.1730_ios.jpg
p1254
aI66
aa(lp1255
V14859062060.87972100.1797_android.jpg
p1256
aI145
aa(lp1257
V14859062510.00201000.1892_android.jpg
p1258
aI99
aa(lp1259
V14859063150.29544200.1018_android_1485906313006.jpg
p1260
aI118
aa(lp1261
V14859063340.30235000.1832_ios.jpg
p1262
aI79
aa(lp1263
V14859063540.29154100.1464_android_1485906351335.jpg
p1264
aI99
aa(lp1265
V14859063730.36750300.1407_android_1485906369636.jpg
p1266
aI190
aa(lp1267
V14859064060.35093100.1010_android.jpg
p1268
aI42
aa(lp1269
V14859064470.38985000.1865_android_1485906445036.jpg
p1270
aI85
aa(lp1271
V14859064720.00603800.1358_android.jpg
p1272
aI83
aa(lp1273
V14859065130.05969300.1361_ios.jpg
p1274
aI60
aa(lp1275
V14859065480.00170900.1314_android.jpg
p1276
aI145
aa(lp1277
V14859065670.19204700.1458_ios.jpg
p1278
aI83
aa(lp1279
V14859066230.91372100.1498_android.jpg
p1280
aI130
aa(lp1281
V14859066420.28763700.1189_ios.jpg
p1282
aI83
aa(lp1283
V14859066930.43112300.1768_ios.jpg
p1284
aI64
aa(lp1285
V14859067440.33725400.1423_ios.jpg
p1286
aI53
aa(lp1287
V14859067820.21040000.1941_android_camera.jpg
p1288
aI42
aa(lp1289
V14859067970.54723000.1815_ios.jpg
p1290
aI37
aa(lp1291
V14859068800.00664400.1925_android_1485906875561.jpg
p1292
aI118
aa(lp1293
V14859069230.41778900.1296_android.jpg
p1294
aI83
aa(lp1295
V14859071330.51496300.1961_android_1485907127474.jpg
p1296
aI83
aa(lp1297
V14859071660.02496000.1410_android.jpg
p1298
aI83
aa(lp1299
V14859071780.51771600.1961_ios.jpg
p1300
aI51
aa(lp1301
V14859071930.07657600.1997_android.jpg
p1302
aI89
aa(lp1303
V14859072020.54998600.1966_android.jpg
p1304
aI99
aa(lp1305
V14859072340.09734200.1415_android_1485907229030.jpg
p1306
aI45
aa(lp1307
V14859072560.37645200.1327_ios.jpg
p1308
aI57
aa(lp1309
V14859072880.41662300.1165_ios.jpg
p1310
aI32
aa(lp1311
V14859073040.03563500.1269_android.jpg
p1312
aI103
aa(lp1313
V14859074510.03329800.1204_ios.jpg
p1314
aI145
aa(lp1315
V14859074680.00223700.1507_android.jpg
p1316
aI22
aa(lp1317
V14859075030.00134800.1981_android.jpg
p1318
aI85
aa(lp1319
V14859075290.33406400.1758_ios.jpg
p1320
aI145
aa(lp1321
V14859076830.01959500.1623_android.jpg
p1322
aI108
aa(lp1323
V14859077220.23397500.1205_ios.jpg
p1324
aI108
aa(lp1325
V14859077460.69745500.1766_android.jpg
p1326
aI51
aa(lp1327
V14859079020.76571700.1355_ios.jpg
p1328
aI47
aa(lp1329
V14859080070.37122200.1978_android.jpg
p1330
aI130
aa(lp1331
V14859080680.31596200.1153_android.jpg
p1332
aI67
aa(lp1333
V14859081440.80253400.1357_android.jpg
p1334
aI99
aa(lp1335
V14859081610.28645000.1934_android.jpg
p1336
aI48
aa(lp1337
V14859082190.79009500.1631_ios.jpg
p1338
aI83
aa(lp1339
V14859082580.05390400.1996_android.jpg
p1340
aI81
aa(lp1341
V14859083340.08293400.1929_android.jpg
p1342
aI145
aa(lp1343
V14859084020.10586500.1921_android.jpg
p1344
aI147
aa(lp1345
V14859084500.00957200.1467_android_1485908447986.jpg
p1346
aI42
aa(lp1347
V14859085090.52099400.1958_android_1485908502614.jpg
p1348
aI145
aa(lp1349
V14859086610.93652500.1563_ios.jpg
p1350
aI32
aa(lp1351
V14859088150.29153400.1242_android.jpg
p1352
aI59
aa(lp1353
V14859088610.00628800.1051_android_1485908851494.jpg
p1354
aI99
aa(lp1355
V14859089290.96550500.1540_android.jpg
p1356
aI99
aa(lp1357
V14859089840.52077500.1341_android.jpg
p1358
aI83
aa(lp1359
V14859090630.72169900.1172_android.jpg
p1360
aI85
aa(lp1361
V14859091430.38687700.1724_android.jpg
p1362
aI42
aa(lp1363
V14859091590.56426100.1025_android.jpg
p1364
aI145
aa(lp1365
V14859092220.77933700.1781_ios.jpg
p1366
aI99
aa(lp1367
V14859092430.56396000.1660_android.jpg
p1368
aI86
aa(lp1369
V14859092530.47657100.1415_ios.jpg
p1370
aI113
aa(lp1371
V14859093340.27584200.1794_android.jpg
p1372
aI118
aa(lp1373
V14859093440.08797500.1898_ios.jpg
p1374
aI83
aa(lp1375
V14859093600.57150800.1759_ios.jpg
p1376
aI57
aa(lp1377
V14859093840.68645500.1140_android.jpg
p1378
aI131
aa(lp1379
V14859095110.25689700.1513_android_1485909407816.jpg
p1380
aI40
aa(lp1381
V14859095910.14689800.1016_android.jpg
p1382
aI84
aa(lp1383
V14859096670.78451600.1227_android.jpg
p1384
aI105
aa(lp1385
V14859097920.94470200.1403_android.jpg
p1386
aI84
aa(lp1387
V14859098160.00578500.1236_android.jpg
p1388
aI83
aa(lp1389
V14859099570.21896300.1845_android.jpg
p1390
aI51
aa(lp1391
V14859099780.48492400.1160_ios.jpg
p1392
aI85
aa(lp1393
V14859100390.51130300.1363_android.jpg
p1394
aI99
aa(lp1395
V14859100890.90654400.1687_ios.jpg
p1396
aI99
aa(lp1397
V14859101260.56043400.1064_ios.jpg
p1398
aI57
aa(lp1399
V14859101440.10193100.1800_android_1485910136411.jpg
p1400
aI32
aa(lp1401
V14859101800.69021900.1019_ios.jpg
p1402
aI71
aa(lp1403
V14859102480.51392500.1062_android.jpg
p1404
aI99
aa(lp1405
V14859103230.75823600.1586_ios.jpg
p1406
aI34
aa(lp1407
V14859104300.00345800.1797_android.jpg
p1408
aI89
aa(lp1409
V14859105700.53411500.1920_ios.jpg
p1410
aI118
aa(lp1411
V14859106800.49208700.1278_ios.jpg
p1412
aI35
aa(lp1413
V14859107550.65575100.1087_android.jpg
p1414
aI145
aa(lp1415
V14859108330.03560700.1856_android.jpg
p1416
aI145
aa(lp1417
V14859108740.33595200.1284_ios.jpg
p1418
aI145
aa(lp1419
V14859109440.68240200.1733_ios.jpg
p1420
aI40
aa(lp1421
V14859110240.16583600.1829_ios.jpg
p1422
aI40
aa(lp1423
V14859110830.78054500.1162_ios.jpg
p1424
aI40
aa(lp1425
V14859112220.51066300.1487_android_1485911218780.jpg
p1426
aI32
aa(lp1427
V14859112640.12794300.1669_android.jpg
p1428
aI51
aa(lp1429
V14859112950.49478800.1502_android.jpg
p1430
aI83
aa(lp1431
V14859114080.50792100.1549_android.jpg
p1432
aI84
aa(lp1433
V14859114790.05592100.1112_android.jpg
p1434
aI83
aa(lp1435
V14859114950.34099700.1204_android_1485911482469.jpg
p1436
aI45
aa(lp1437
V14859115160.17426100.1668_android.jpg
p1438
aI54
aa(lp1439
V14859116280.00327600.1331_android.jpg
p1440
aI130
aa(lp1441
V14859116440.29503000.1613_android.jpg
p1442
aI43
aa(lp1443
V14859116780.29079100.1868_android_1485911652253.jpg
p1444
aI85
aa(lp1445
V14859116870.51033500.1997_android_1485911681281.jpg
p1446
aI83
aa(lp1447
V14859117640.77379400.1014_ios.jpg
p1448
aI83
aa(lp1449
V14859118060.64261000.1802_android.jpg
p1450
aI61
aa(lp1451
V14859118450.39194300.1742_android.jpg
p1452
aI61
aa(lp1453
V14859118980.00538400.1127_android.jpg
p1454
aI51
aa(lp1455
V14859119130.58055800.1902_android.jpg
p1456
aI145
aa(lp1457
V14859119750.53133800.1031_android.jpg
p1458
aI84
aa(lp1459
V14859120720.03000600.1041_android.jpg
p1460
aI107
aa(lp1461
V14859120900.05867800.1158_android.jpg
p1462
aI107
aa(lp1463
V14859121660.38655000.1519_android.jpg
p1464
aI60
aa(lp1465
V14859121850.21043800.1327_android.jpg
p1466
aI46
aa(lp1467
V14859121990.00742100.1617_android.jpg
p1468
aI51
aa(lp1469
V14859122190.24799000.1185_android_1485912211324.jpg
p1470
aI32
aa(lp1471
V14859122910.81672900.1931_ios.jpg
p1472
aI85
aa(lp1473
V14859123310.76708700.1844_android.jpg
p1474
aI146
aa(lp1475
V14859124310.25626000.1838_android.jpg
p1476
aI51
aa(lp1477
V14859124700.14863700.1829_android.jpg
p1478
aI108
aa(lp1479
V14859125300.10517500.1257_android.jpg
p1480
aI40
aa(lp1481
V14859125550.91179800.1755_ios.jpg
p1482
aI130
aa(lp1483
V14859125770.71642600.1122_android.jpg
p1484
aI42
aa(lp1485
V14859125950.23240000.1099_android_1485912591084.jpg
p1486
aI85
aa(lp1487
V14859126550.05952800.1953_android.jpg
p1488
aI43
aa(lp1489
V14859127550.05398000.1013_android.jpg
p1490
aI101
aa(lp1491
V14859127760.17049100.1123_android.jpg
p1492
aI52
aa(lp1493
V14859128310.47234200.1865_android.jpg
p1494
aI151
aa(lp1495
V14859128590.42800900.1371_android.jpg
p1496
aI108
aa(lp1497
V14859129000.51235000.1183_android.jpg
p1498
aI131
aa(lp1499
V14859129280.62960800.1015_android.jpg
p1500
aI53
aa(lp1501
V14859130930.00421800.1295_android_1485913087535.jpg
p1502
aI83
aa(lp1503
V14859131660.29608500.1042_android.jpg
p1504
aI83
aa(lp1505
V14859132040.38318200.1206_ios.jpg
p1506
aI113
aa(lp1507
V14859133440.51872600.1792_android_1485913340242.jpg
p1508
aI145
aa(lp1509
V14859133590.29370000.1919_android_1485913332553.jpg
p1510
aI46
aa(lp1511
V14859134910.28403300.1641_android_1485913488253.jpg
p1512
aI51
aa(lp1513
V14859135830.26359600.1321_ios.jpg
p1514
aI83
aa(lp1515
V14859135990.74305900.1642_android.jpg
p1516
aI242
aa(lp1517
V14859137740.73363600.1909_android.jpg
p1518
aI39
aa(lp1519
V14859141150.54819000.1904_android.jpg
p1520
aI41
aa(lp1521
V14859142330.68607400.1877_android.jpg
p1522
aI145
aa(lp1523
V14859142880.16347600.1543_android.jpg
p1524
aI113
aa(lp1525
V14859143090.00498700.1973_android.jpg
p1526
aI42
aa(lp1527
V14859143380.83960200.1707_ios.jpg
p1528
aI51
aa(lp1529
V14859143540.93689100.1257_android.jpg
p1530
aI42
aa(lp1531
V14859144400.10045800.1444_ios.jpg
p1532
aI108
aa(lp1533
V14859145160.03014000.1687_android.jpg
p1534
aI99
aa(lp1535
V14859146810.80600800.1918_android.jpg
p1536
aI34
aa(lp1537
V14859147920.49997300.1298_ios.jpg
p1538
aI47
aa(lp1539
V14859148470.52064900.1267_ios.jpg
p1540
aI118
aa(lp1541
V14859148750.02979500.1615_android.jpg
p1542
aI190
aa(lp1543
V14859149180.06235800.1497_android.jpg
p1544
aI119
aa(lp1545
V14859149830.29145700.1494_android.jpg
p1546
aI148
aa(lp1547
V14859150390.00434300.1523_android.jpg
p1548
aI42
aa(lp1549
V14859150620.11521300.1931_ios.jpg
p1550
aI205
aa(lp1551
V14859150760.54268700.1533_ios.jpg
p1552
aI45
aa(lp1553
V14859151140.37541100.1353_ios.jpg
p1554
aI22
aa(lp1555
V14859151680.93354600.1963_ios.jpg
p1556
aI205
aa(lp1557
V14859152600.94759100.1274_android.jpg
p1558
aI45
aa(lp1559
V14859153530.21136100.1397_android.jpg
p1560
aI78
aa(lp1561
V14859154140.09941700.1016_ios.jpg
p1562
aI36
aa(lp1563
V14859155810.90440700.1390_android_1485915577912.jpg
p1564
aI42
aa(lp1565
V14859155990.63960900.1061_android_1485915596283.jpg
p1566
aI113
aa(lp1567
V14859156160.04146500.1532_android.jpg
p1568
aI35
aa(lp1569
V14859156710.45561800.1860_ios.jpg
p1570
aI34
aa(lp1571
V14859156890.84989200.1533_android.jpg
p1572
aI153
aa(lp1573
V14859157380.52949600.1285_android_1485915734678.jpg
p1574
aI83
aa(lp1575
V14859157760.00508000.1921_android_1485915771619.jpg
p1576
aI32
aa(lp1577
V14859158780.00343800.1453_android_1485915875726.jpg
p1578
aI118
aa(lp1579
V14859159590.94163800.1399_android.jpg
p1580
aI190
aa(lp1581
V14859161160.79709200.1309_ios.jpg
p1582
aI55
aa(lp1583
V14859162310.15980700.1478_ios.jpg
p1584
aI83
aa(lp1585
V14859162750.56346900.1345_android.jpg
p1586
aI131
aa(lp1587
V14859163080.20121900.1653_android.jpg
p1588
aI57
aa(lp1589
V14859163380.59303200.1365_android_1485916533578.jpg
p1590
aI205
aa(lp1591
V14859163710.06913700.1543_android.jpg
p1592
aI131
aa(lp1593
V14859163900.87075000.1011_android.jpg
p1594
aI45
aa(lp1595
V14859165030.32329500.1863_ios.jpg
p1596
aI51
aa(lp1597
V14859165780.59605100.1147_ios.jpg
p1598
aI37
aa(lp1599
V14859166370.49822100.1291_android_1485916635730.jpg
p1600
aI34
aa(lp1601
V14859170580.97183300.1859_android_1485917052536.jpg
p1602
aI65
aa(lp1603
V14859171510.51481600.1132_android.jpg
p1604
aI118
aa(lp1605
V14859171730.13883100.1547_android.jpg
p1606
aI84
aa(lp1607
V14859171980.41650200.1002_ios.jpg
p1608
aI104
aa(lp1609
V14859173820.24787700.1641_ios.jpg
p1610
aI40
aa(lp1611
V14859175520.02601800.1362_android.jpg
p1612
aI52
aa(lp1613
V14859176050.63384500.1650_android.jpg
p1614
aI60
aa(lp1615
V14859177260.88840200.1352_ios.jpg
p1616
aI114
aa(lp1617
V14859177700.50748000.1667_android.jpg
p1618
aI33
aa(lp1619
V14859179010.56441800.1665_ios.jpg
p1620
aI84
aa(lp1621
V14859179210.00246200.1690_android_1485917919116.jpg
p1622
aI194
aa(lp1623
V14859182050.60104100.1951_ios.jpg
p1624
aI39
aa(lp1625
V14859182180.93282500.1161_android.jpg
p1626
aI57
aa(lp1627
V14859182570.92893500.1007_android_1485918254065.jpg
p1628
aI51
aa(lp1629
V14859182750.27504100.1430_android.jpg
p1630
aI40
aa(lp1631
V14859183680.92995500.1235_android_1485918361508.jpg
p1632
aI104
aa(lp1633
V14859183910.01414100.1799_android_1485918383547.jpg
p1634
aI83
aa(lp1635
V14859184730.18695200.1046_android_1485918469364.jpg
p1636
aI205
aa(lp1637
V14859185620.86261100.1291_android.jpg
p1638
aI46
aa(lp1639
V14859185870.37146900.1577_ios.jpg
p1640
aI39
aa(lp1641
V14859186320.09156000.1710_ios.jpg
p1642
aI35
aa(lp1643
V14859186670.04591700.1516_ios.jpg
p1644
aI124
aa(lp1645
V14859187390.11998800.1719_android.jpg
p1646
aI65
aa(lp1647
V14859188070.22267600.1304_android.jpg
p1648
aI82
aa(lp1649
V14859188250.86443300.1463_android.jpg
p1650
aI51
aa(lp1651
V14859188450.73030600.1986_ios.jpg
p1652
aI205
aa(lp1653
V14859189860.99585700.1907_android.jpg
p1654
aI51
aa(lp1655
V14859191870.97739400.1893_ios.jpg
p1656
aI108
aa(lp1657
V14859192060.23577500.1695_android.jpg
p1658
aI56
aa(lp1659
V14859193090.01792900.1357_android.jpg
p1660
aI205
aa(lp1661
V14859193700.50103900.1474_android.jpg
p1662
aI41
aa(lp1663
V14859193910.61212100.1759_android.jpg
p1664
aI65
aa(lp1665
V14859194240.56414300.1135_ios.jpg
p1666
aI147
aa(lp1667
V14859194650.00594100.1527_android.jpg
p1668
aI44
aa(lp1669
V14859194810.13048400.1872_android.jpg
p1670
aI46
aa(lp1671
V14859195260.00209000.1691_android.jpg
p1672
aI51
aa(lp1673
V14859195680.95961200.1274_android.jpg
p1674
aI42
aa(lp1675
V14859195900.00829600.1677_android.jpg
p1676
aI55
aa(lp1677
V14859196380.29655500.1782_android_1485919628121.jpg
p1678
aI145
aa(lp1679
V14859199320.38982400.1705_android.jpg
p1680
aI95
aa(lp1681
V14859201640.33978800.1556_ios.jpg
p1682
aI43
aa(lp1683
V14859201900.04426500.1410_android_1485920182649.jpg
p1684
aI205
aa(lp1685
V14859202670.96241600.1878_ios.jpg
p1686
aI60
aa(lp1687
V14859203120.01134400.1823_android.jpg
p1688
aI86
aa(lp1689
V14859203810.06686100.1988_android.jpg
p1690
aI51
aa(lp1691
V14859204370.00279300.1123_android.jpg
p1692
aI56
aa(lp1693
V14859204630.02305700.1226_android.jpg
p1694
aI84
aa(lp1695
V14859204970.09406300.1720_android_1485920497484.jpg
p1696
aI145
aa(lp1697
V14859205140.00583400.1877_android_1485920511214.jpg
p1698
aI99
aa(lp1699
V14859206650.29060000.1668_android.jpg
p1700
aI178
aa(lp1701
V14859207020.27813100.1513_android.jpg
p1702
aI34
aa(lp1703
V14859208490.01267600.1583_android.jpg
p1704
aI64
aa(lp1705
V14859209920.55717000.1390_ios.jpg
p1706
aI99
aa(lp1707
V14859211880.39090800.1506_ios.jpg
p1708
aI51
aa(lp1709
V14859212130.53661300.1084_ios.jpg
p1710
aI51
aa(lp1711
V14859213270.00551000.1150_android_1485921326177.jpg
p1712
aI59
aa(lp1713
V14859214280.00490000.1205_android.jpg
p1714
aI79
aa(lp1715
V14859214490.38805400.1898_android_1485921448905.jpg
p1716
aI59
aa(lp1717
V14859214700.17222800.1064_android.jpg
p1718
aI83
aa(lp1719
V14859214910.36042900.1883_ios.jpg
p1720
aI145
aa(lp1721
V14859217740.10025900.1431_android.jpg
p1722
aI228
aa(lp1723
V14859219170.85607600.1808_ios.jpg
p1724
aI22
aa(lp1725
V14859219400.30335100.1256_android.jpg
p1726
aI42
aa(lp1727
V14859219630.43596200.1952_ios.jpg
p1728
aI54
aa(lp1729
V14859221720.01242700.1574_android.jpg
p1730
aI51
aa(lp1731
V14859223150.73319800.1321_android.jpg
p1732
aI104
aa(lp1733
V14859223850.39003000.1366_android.jpg
p1734
aI61
aa(lp1735
V14859225310.93319500.1848_android_1485922506027.jpg
p1736
aI85
aa(lp1737
V14859226080.96404300.1276_ios.jpg
p1738
aI42
aa(lp1739
V14859226500.87022700.1862_android.jpg
p1740
aI104
aa(lp1741
V14859227560.29544200.1660_android.jpg
p1742
aI39
aa(lp1743
V14859227850.00510900.1279_android.jpg
p1744
aI103
aa(lp1745
V14859228290.16934400.1176_ios.jpg
p1746
aI55
aa(lp1747
V14859228500.61690600.1242_android.jpg
p1748
aI108
aa(lp1749
V14859229120.34056400.1377_android.jpg
p1750
aI37
aa(lp1751
V14859231220.51158800.1272_android_1485923117318.jpg
p1752
aI52
aa(lp1753
V14859233140.60280200.1109_android.jpg
p1754
aI104
aa(lp1755
V14859233630.92168700.1536_ios.jpg
p1756
aI46
aa(lp1757
V14859235080.70201900.1615_android.jpg
p1758
aI37
aa(lp1759
V14859236470.08143600.1466_android.jpg
p1760
aI104
aa(lp1761
V14859237070.30638300.1715_ios.jpg
p1762
aI58
aa(lp1763
V14859238890.73290700.1890_android.jpg
p1764
aI104
aa(lp1765
V14859239180.50870400.1574_android.jpg
p1766
aI83
aa(lp1767
V14859239840.29302600.1357_android.jpg
p1768
aI118
aa(lp1769
V14859240030.42741100.1974_ios.jpg
p1770
aI205
aa(lp1771
V14859240330.39664100.1825_android_1485924020546.jpg
p1772
aI32
aa(lp1773
V14859240580.44375900.1726_ios.jpg
p1774
aI51
aa(lp1775
V14859242550.82458700.1341_android.jpg
p1776
aI105
aa(lp1777
V14859245000.24684700.1547_android.jpg
p1778
aI51
aa(lp1779
V14859246840.03141000.1556_android_1485924656636.jpg
p1780
aI114
aa(lp1781
V14859247840.53895700.1652_android_1485924761490.jpg
p1782
aI57
aa(lp1783
V14859248220.22911500.1347_android.jpg
p1784
aI126
aa(lp1785
V14859249340.40000900.1286_android.jpg
p1786
aI83
aa(lp1787
V14859249560.01162400.1862_android.jpg
p1788
aI61
aa(lp1789
V14859249850.06999200.1443_android_1485924982769.jpg
p1790
aI59
aa(lp1791
V14859250310.67186500.1189_android.jpg
p1792
aI95
aa(lp1793
V14859250670.00697900.1609_android_1485925062175.jpg
p1794
aI104
aa(lp1795
V14859250880.28467500.1391_android.jpg
p1796
aI83
aa(lp1797
V14859252200.73584400.1301_ios.jpg
p1798
aI52
aa(lp1799
V14859252390.52850200.1001_android.jpg
p1800
aI32
aa(lp1801
V14859253010.93813800.1981_ios.jpg
p1802
aI205
aa(lp1803
V14859253200.00116300.1483_android.jpg
p1804
aI83
aa(lp1805
V14859253520.53092900.1565_android.jpg
p1806
aI51
aa(lp1807
V14859254010.31092700.1873_ios.jpg
p1808
aI32
aa(lp1809
V14859254290.04970700.1878_android.jpg
p1810
aI126
aa(lp1811
V14859254530.84749000.1103_android.jpg
p1812
aI114
aa(lp1813
V14859255500.77407600.1294_android.jpg
p1814
aI42
aa(lp1815
V14859255760.12937000.1382_android_1485925571895.jpg
p1816
aI118
aa(lp1817
V14859256330.85323600.1447_ios.jpg
p1818
aI32
aa(lp1819
V14859256470.44827100.1099_ios.jpg
p1820
aI32
aa(lp1821
V14859257500.01231100.1645_android.jpg
p1822
aI118
aa(lp1823
V14859257970.92394400.1384_ios.jpg
p1824
aI41
aa(lp1825
V14859258510.29251300.1914_android.jpg
p1826
aI48
aa(lp1827
V14859259330.32298100.1266_android.jpg
p1828
aI32
aa(lp1829
V14859259810.20448600.1169_ios.jpg
p1830
aI48
aa(lp1831
V14859260090.77745800.1705_ios.jpg
p1832
aI172
aa(lp1833
V14859261030.28731600.1839_android.jpg
p1834
aI105
aa(lp1835
V14859261740.39495600.1838_ios.jpg
p1836
aI58
aa(lp1837
V14859262870.69165200.1286_ios.jpg
p1838
aI32
aa(lp1839
V14859263100.05918700.1371_android.jpg
p1840
aI51
aa(lp1841
V14859263310.00786900.1399_android.jpg
p1842
aI48
aa(lp1843
V14859264660.18327200.1044_android.jpg
p1844
aI44
aa(lp1845
V14859266240.33757600.1861_ios.jpg
p1846
aI53
aa(lp1847
V14859266790.25901200.1536_android.jpg
p1848
aI40
aa(lp1849
V14859269120.77777700.1454_android.jpg
p1850
aI146
aa(lp1851
V14859269460.11582400.1927_android.jpg
p1852
aI93
aa(lp1853
V14859270730.67034200.1704_android.jpg
p1854
aI35
aa(lp1855
V14859272140.50252500.1965_android_1485927210336.jpg
p1856
aI22
aa(lp1857
V14859273680.00719300.1647_android_1485927356765.jpg
p1858
aI27
aa(lp1859
V14859275160.02097700.1670_android.jpg
p1860
aI60
aa(lp1861
V14859276600.91879200.1155_ios.jpg
p1862
aI37
aa(lp1863
V14859279920.51494000.1755_android_1485928020576.jpg
p1864
aI32
aa(lp1865
V14859281060.19823800.1600_android_1485928102676.jpg
p1866
aI35
aa(lp1867
V14859282270.02872000.1238_android_1485927774532.jpg
p1868
aI108
aa(lp1869
V14859282740.77798300.1957_android.jpg
p1870
aI104
aa(lp1871
V14859283680.02703500.1770_ios.jpg
p1872
aI41
aa(lp1873
V14859286470.18807200.1198_android.jpg
p1874
aI94
aa(lp1875
V14859286850.61876600.1398_android.jpg
p1876
aI45
aa(lp1877
V14859287410.17096500.1236_ios.jpg
p1878
aI33
aa(lp1879
V14859287640.07125000.1265_ios.jpg
p1880
aI39
aa(lp1881
V14859288220.50711500.1413_ios.jpg
p1882
aI60
aa(lp1883
V14859288780.58780500.1451_android.jpg
p1884
aI61
aa(lp1885
V14859289130.39744000.1136_android.jpg
p1886
aI61
aa(lp1887
V14859289370.77420500.1234_android.jpg
p1888
aI61
aa(lp1889
V14859289940.00346700.1129_android.jpg
p1890
aI186
aa(lp1891
V14859290140.14197500.1349_ios.jpg
p1892
aI45
aa(lp1893
V14859290370.94075700.1367_android_1485928968959.jpg
p1894
aI145
aa(lp1895
V14859290950.06451700.1606_android.jpg
p1896
aI45
aa(lp1897
V14859292250.33660500.1603_android.jpg
p1898
aI73
aa(lp1899
V14859292500.78064100.1616_android.jpg
p1900
aI61
aa(lp1901
V14859293940.01092200.1367_android.jpg
p1902
aI105
aa(lp1903
V14859296720.70105100.1714_android.jpg
p1904
aI41
aa(lp1905
V14859297050.77746200.1389_android.jpg
p1906
aI51
aa(lp1907
V14859298430.04015900.1708_android.jpg
p1908
aI242
aa(lp1909
V14859298660.29424600.1145_android.jpg
p1910
aI51
aa(lp1911
V14859299410.34543200.1893_android.jpg
p1912
aI242
aa(lp1913
V14859300360.30647900.1721_android.jpg
p1914
aI151
aa(lp1915
V14859301350.00808900.1751_android_1485930127876.jpg
p1916
aI56
aa(lp1917
V14859302120.82882300.1530_ios.jpg
p1918
aI34
aa(lp1919
V14859303630.39997400.1350_android.jpg
p1920
aI39
aa(lp1921
V14859305940.00565400.1477_android.jpg
p1922
aI95
aa(lp1923
V14859306140.12491500.1973_ios.jpg
p1924
aI104
aa(lp1925
V14859307100.45610600.1167_android_1485930706545.jpg
p1926
aI144
aa(lp1927
V14859308380.34089000.1555_android_1485930835260.jpg
p1928
aI126
aa(lp1929
V14859309130.00311400.1231_android.jpg
p1930
aI65
aa(lp1931
V14859309530.00271800.1695_android.jpg
p1932
aI205
aa(lp1933
V14859310040.91040000.1957_android.jpg
p1934
aI60
aa(lp1935
V14859310290.27241600.1779_ios.jpg
p1936
aI32
aa(lp1937
V14859310560.25161700.1931_android.jpg
p1938
aI60
aa(lp1939
V14859311320.39956400.1281_ios.jpg
p1940
aI32
aa(lp1941
V14859311570.85986300.1104_android.jpg
p1942
aI45
aa(lp1943
V14859311850.98731800.1035_ios.jpg
p1944
aI46
aa(lp1945
V14859312360.96381100.1857_ios.jpg
p1946
aI42
aa(lp1947
V14859313000.86556500.1518_android.jpg
p1948
aI130
aa(lp1949
V14859313780.86115400.1581_android.jpg
p1950
aI60
aa(lp1951
V14859314160.88475000.1395_ios.jpg
p1952
aI42
aa(lp1953
V14859315350.33607000.1241_ios.jpg
p1954
aI55
aa(lp1955
V14859315910.55000300.1546_android.jpg
p1956
aI60
aa(lp1957
V14859317810.84001000.1476_ios.jpg
p1958
aI41
aa(lp1959
V14859318110.28921000.1845_android.jpg
p1960
aI84
aa(lp1961
V14859320290.00241300.1687_ios.jpg
p1962
aI70
aa(lp1963
V14859320650.99287200.1950_ios.jpg
p1964
aI205
aa(lp1965
V14859320960.00173700.1920_android.jpg
p1966
aI186
aa(lp1967
V14859323440.28315800.1573_android_1485932336595.jpg
p1968
aI42
aa(lp1969
V14859324070.72013700.1418_android.jpg
p1970
aI22
aa(lp1971
V14859326910.76567100.1434_ios.jpg
p1972
aI51
aa(lp1973
V14859327160.52252200.1438_android.jpg
p1974
aI145
aa(lp1975
V14859329070.42903400.1847_android.jpg
p1976
aI130
aa(lp1977
V14859330010.02790300.1440_ios.jpg
p1978
aI32
aa(lp1979
V14859330500.10378600.1917_android.jpg
p1980
aI32
aa(lp1981
V14859331070.22396200.1515_android_1485933104966.jpg
p1982
aI32
aa(lp1983
V14859332080.03988800.1010_ios.jpg
p1984
aI79
aa(lp1985
V14859332240.79383100.1087_android.jpg
p1986
aI64
aa(lp1987
V14859332910.00432000.1482_android_1485933289280.jpg
p1988
aI102
aa(lp1989
V14859333190.30482000.1982_ios.jpg
p1990
aI33
aa(lp1991
V14859333770.59318800.1928_ios.jpg
p1992
aI99
aa(lp1993
V14859334250.19606900.1311_ios.jpg
p1994
aI99
aa(lp1995
V14859335570.60802200.1160_ios.jpg
p1996
aI33
aa(lp1997
V14859336350.51965400.1864_android.jpg
p1998
aI194
aa(lp1999
V14859337200.15401100.1107_android.jpg
p2000
aI99
aa(lp2001
V14859339670.00229400.1627_android_1485933963084.jpg
p2002
aI51
aa(lp2003
V14859339910.01286500.1268_android_1485933986554.jpg
p2004
aI51
aa(lp2005
V14859343090.74744200.1827_android.jpg
p2006
aI81
aa(lp2007
V14859343360.18216300.1553_android.jpg
p2008
aI62
aa(lp2009
V14859344020.67876500.1998_ios.jpg
p2010
aI35
aa(lp2011
V14859345260.01057600.1650_android.jpg
p2012
aI67
aa(lp2013
V14859346120.04271800.1203_android.jpg
p2014
aI51
aa(lp2015
V14859347540.92022500.1421_android.jpg
p2016
aI42
aa(lp2017
V14859349040.56369800.1941_android.jpg
p2018
aI178
aa(lp2019
V14859350070.37034800.1378_android.jpg
p2020
aI61
aa(lp2021
V14859350670.96913600.1186_android.jpg
p2022
aI22
aa(lp2023
V14859350890.57734500.1009_android.jpg
p2024
aI61
aa(lp2025
V14859351100.28920800.1964_android.jpg
p2026
aI131
aa(lp2027
V14859351580.13276600.1466_android.jpg
p2028
aI61
aa(lp2029
V14859352250.01211800.1408_android.jpg
p2030
aI84
aa(lp2031
V14859355000.62271500.1690_ios.jpg
p2032
aI47
aa(lp2033
V14859355630.00276200.1314_android.jpg
p2034
aI146
aa(lp2035
V14859355800.65229900.1879_android.jpg
p2036
aI89
aa(lp2037
V14859356650.01561100.1913_ios.jpg
p2038
aI60
aa(lp2039
V14859357170.53697400.1366_ios.jpg
p2040
aI186
aa(lp2041
V14859357480.58130900.1840_android.jpg
p2042
aI44
aa(lp2043
V14859357950.67335500.1114_ios.jpg
p2044
aI73
aa(lp2045
V14859358170.58445700.1873_ios.jpg
p2046
aI52
aa(lp2047
V14859358420.43045200.1750_android_1485935839758.jpg
p2048
aI35
aa(lp2049
V14859360240.95116700.1898_android_1485936015249.jpg
p2050
aI89
aa(lp2051
V14859360480.37443300.1275_ios.jpg
p2052
aI44
aa(lp2053
V14859361500.01111400.1626_ios.jpg
p2054
aI52
aa(lp2055
V14859361860.51130400.1872_android.jpg
p2056
aI32
aa(lp2057
V14859362330.99454300.1886_ios.jpg
p2058
aI84
aa(lp2059
V14859362600.00443100.1728_android_1485936255209.jpg
p2060
aI85
aa(lp2061
V14859363190.25822200.1268_android_1485936321441.jpg
p2062
aI42
aa(lp2063
V14859365460.51495600.1519_android.jpg
p2064
aI51
aa(lp2065
V14859365880.06487000.1558_ios.jpg
p2066
aI64
aa(lp2067
V14859366780.00672400.1251_android_1485936679905.jpg
p2068
aI42
aa(lp2069
V14859367900.58010500.1565_android.jpg
p2070
aI42
aa(lp2071
V14859368100.70845200.1236_android.jpg
p2072
aI58
aa(lp2073
V14859368300.58019000.1523_android.jpg
p2074
aI83
aa(lp2075
V14859368690.07036100.1051_android_1485936847631.jpg
p2076
aI45
aa(lp2077
V14859370120.81836100.1587_ios.jpg
p2078
aI32
aa(lp2079
V14859372190.00770400.1776_android.jpg
p2080
aI32
aa(lp2081
V14859372880.88958300.1544_android_1485937178647.jpg
p2082
aI42
aa(lp2083
V14859374620.60193200.1069_ios.jpg
p2084
aI51
aa(lp2085
V14859376040.24291800.1308_android_1485937593316.jpg
p2086
aI105
aa(lp2087
V14859376240.77606900.1268_android.jpg
p2088
aI83
aa(lp2089
V14859376560.85914900.1926_android.jpg
p2090
aI83
aa(lp2091
V14859376740.31744700.1868_android.jpg
p2092
aI35
aa(lp2093
V14859377410.34053800.1850_ios.jpg
p2094
aI34
aa(lp2095
V14859380120.04921200.1449_ios.jpg
p2096
aI52
aa(lp2097
V14859380360.54143600.1606_android_camera.jpg
p2098
aI35
aa(lp2099
V14859380560.22434100.1342_ios.jpg
p2100
aI95
aa(lp2101
V14859381150.20054600.1078_ios.jpg
p2102
aI61
aa(lp2103
V14859381640.56633000.1118_android.jpg
p2104
aI46
aa(lp2105
V14859381970.87321800.1903_ios.jpg
p2106
aI48
aa(lp2107
V14859382250.23351900.1369_android.jpg
p2108
aI147
aa(lp2109
V14859382480.00389600.1020_android.jpg
p2110
aI65
aa(lp2111
V14859383230.02509400.1449_ios.jpg
p2112
aI186
aa(lp2113
V14859383730.61918500.1602_android.jpg
p2114
aI119
aa(lp2115
V14859384590.14527800.1146_ios.jpg
p2116
aI73
aa(lp2117
V14859386140.29855000.1767_ios.jpg
p2118
aI119
aa(lp2119
V14859386390.64453500.1326_ios.jpg
p2120
aI32
aa(lp2121
V14859388510.85593000.1561_android.jpg
p2122
aI35
aa(lp2123
V14859388690.08870900.1644_android.jpg
p2124
aI45
aa(lp2125
V14859389380.89210600.1343_android.jpg
p2126
aI45
aa(lp2127
V14859389880.92681400.1580_android_1485938978318.jpg
p2128
aI178
aa(lp2129
V14859390960.24823600.1934_ios.jpg
p2130
aI131
aa(lp2131
V14859391770.50037600.1027_android.jpg
p2132
aI52
aa(lp2133
V14859394180.14879300.1449_android.jpg
p2134
aI32
aa(lp2135
V14859394380.38806500.1873_android.jpg
p2136
aI52
aa(lp2137
V14859394550.62578900.1608_android.jpg
p2138
aI52
aa(lp2139
V14859394750.28078000.1571_android.jpg
p2140
aI101
aa(lp2141
V14859395000.39290600.1439_android.jpg
p2142
aI50
aa(lp2143
V14859395530.55795700.1799_android.jpg
p2144
aI52
aa(lp2145
V14859395750.47581800.1442_android.jpg
p2146
aI104
aa(lp2147
V14859396500.62485500.1252_android.jpg
p2148
aI50
aa(lp2149
V14859396690.50514400.1337_android.jpg
p2150
aI190
aa(lp2151
V14859397440.58983400.1934_android.jpg
p2152
aI27
aa(lp2153
V14859398230.01684800.1965_android.jpg
p2154
aI61
aa(lp2155
V14859398740.59738800.1683_android.jpg
p2156
aI34
aa(lp2157
V14859400010.38420400.1804_android.jpg
p2158
aI33
aa(lp2159
V14859400590.28270000.1920_android.jpg
p2160
aI46
aa(lp2161
V14859400930.92051300.1886_ios.jpg
p2162
aI83
aa(lp2163
V14859401670.72607600.1023_android.jpg
p2164
aI82
aa(lp2165
V14859402250.71821200.1472_android_1485940210520.jpg
p2166
aI153
aa(lp2167
V14859402400.00301600.1628_android.jpg
p2168
aI103
aa(lp2169
V14859404020.63595100.1915_android_1485940400036.jpg
p2170
aI145
aa(lp2171
V14859406510.31880400.1171_android.jpg
p2172
aI40
aa(lp2173
V14859407200.37052100.1547_ios.jpg
p2174
aI58
aa(lp2175
V14859407770.29810000.1039_ios.jpg
p2176
aI58
aa(lp2177
V14859407980.03888300.1220_android.jpg
p2178
aI50
aa(lp2179
V14859408240.29257100.1532_ios.jpg
p2180
aI144
aa(lp2181
V14859408960.48282000.1309_android.jpg
p2182
aI57
aa(lp2183
V14859409140.03309600.1822_android.jpg
p2184
aI146
aa(lp2185
V14859410000.60007800.1175_android.jpg
p2186
aI76
aa(lp2187
V14859410220.39832900.1024_ios.jpg
p2188
aI33
aa(lp2189
V14859411870.28904300.1864_android.jpg
p2190
aI56
aa(lp2191
V14859412100.84571600.1018_ios.jpg
p2192
aI51
aa(lp2193
V14859413010.21671400.1449_android.jpg
p2194
aI51
aa(lp2195
V14859413210.16096800.1505_android.jpg
p2196
aI56
aa(lp2197
V14859413670.16523900.1688_android.jpg
p2198
aI58
aa(lp2199
V14859416320.49509400.1787_android.jpg
p2200
aI59
aa(lp2201
V14859417060.69232600.1814_android.jpg
p2202
aI33
aa(lp2203
V14859417670.42475900.1140_android.jpg
p2204
aI56
aa(lp2205
V14859417840.07766100.1369_ios.jpg
p2206
aI60
aa(lp2207
V14859418570.70433900.1874_ios.jpg
p2208
aI45
aa(lp2209
V14859418810.03753600.1126_ios.jpg
p2210
aI67
aa(lp2211
V14859419570.00451800.1834_android_1485941916885.jpg
p2212
aI33
aa(lp2213
V14859419760.90641400.1093_camera_ios.jpg
p2214
aI62
aa(lp2215
V14859421430.46953300.1533_ios.jpg
p2216
aI52
aa(lp2217
V14859421650.85372200.1769_ios.jpg
p2218
aI117
aa(lp2219
V14859421890.08076400.1638_android_1485942056274.jpg
p2220
aI32
aa(lp2221
V14859423490.00914200.1918_android.jpg
p2222
aI205
aa(lp2223
V14859424160.36240500.1577_android.jpg
p2224
aI35
aa(lp2225
V14859426430.87540500.1052_ios.jpg
p2226
aI51
aa(lp2227
V14859426610.74846100.1338_ios.jpg
p2228
aI105
aa(lp2229
V14859427410.51985000.1763_ios.jpg
p2230
aI45
aa(lp2231
V14859427960.00723500.1364_android.jpg
p2232
aI77
aa(lp2233
V14859428130.99131700.1456_ios.jpg
p2234
aI45
aa(lp2235
V14859428430.02496400.1430_android.jpg
p2236
aI77
aa(lp2237
V14859429880.14215500.1209_android.jpg
p2238
aI59
aa(lp2239
V14859430290.41228500.1505_android.jpg
p2240
aI73
aa(lp2241
V14859431220.00544400.1181_android.jpg
p2242
aI51
aa(lp2243
V14859431690.76248100.1357_android.jpg
p2244
aI242
aa(lp2245
V14859431880.79048200.1716_android.jpg
p2246
aI32
aa(lp2247
V14859432390.78615000.1840_android.jpg
p2248
aI113
aa(lp2249
V14859432650.54767300.1974_android.jpg
p2250
aI48
aa(lp2251
V14859433030.85316900.1392_android.jpg
p2252
aI44
aa(lp2253
V14859433600.27840200.1445_android.jpg
p2254
aI113
aa(lp2255
V14859433900.65433300.1428_ios.jpg
p2256
aI205
aa(lp2257
V14859434250.63073300.1339_android.jpg
p2258
aI84
aa(lp2259
V14859435920.52156500.1738_android.jpg
p2260
aI58
aa(lp2261
V14859439730.96163400.1337_ios.jpg
p2262
aI56
aa(lp2263
V14859440470.18709400.1577_ios.jpg
p2264
aI58
aa(lp2265
V14859442640.28841600.1223_android.jpg
p2266
aI153
aa(lp2267
V14859443590.77005700.1576_ios.jpg
p2268
aI57
aa(lp2269
V14859445470.17377600.1250_ios.jpg
p2270
aI47
aa(lp2271
V14859445690.00304400.1712_android.jpg
p2272
aI118
aa(lp2273
V14859447980.77016700.1070_ios.jpg
p2274
aI67
aa(lp2275
V14859448230.11917400.1090_ios.jpg
p2276
aI242
aa(lp2277
V14859449110.04924300.1989_android.jpg
p2278
aI113
aa(lp2279
V14859449910.89346100.1280_ios.jpg
p2280
aI205
aa(lp2281
V14859450720.49132400.1416_android.jpg
p2282
aI37
aa(lp2283
V14859450920.02473900.1682_android_1485945072840.jpg
p2284
aI32
aa(lp2285
V14859453500.09450500.1866_android_1485945333225.jpg
p2286
aI32
aa(lp2287
V14859453860.56698400.1155_ios.jpg
p2288
aI44
aa(lp2289
V14859454540.58407400.1372_android.jpg
p2290
aI64
aa(lp2291
V14859456250.03252300.1371_android.jpg
p2292
aI51
aa(lp2293
V14859456800.40046300.1522_ios.jpg
p2294
aI186
aa(lp2295
V14859459490.77603600.1795_android.jpg
p2296
aI84
aa(lp2297
V14859461580.10457900.1797_ios.jpg
p2298
aI105
aa(lp2299
V14859462610.04569600.1586_android.jpg
p2300
aI56
aa(lp2301
V14859462870.51214100.1210_android.jpg
p2302
aI56
aa(lp2303
V14859466300.46431900.1642_android.jpg
p2304
aI126
aa(lp2305
V14859468500.87986400.1768_android.jpg
p2306
aI45
aa(lp2307
V14859468870.53509300.1214_ios.jpg
p2308
aI99
aa(lp2309
V14859470460.00831900.1054_android_1485947027350.jpg
p2310
aI44
aa(lp2311
V14859472670.08638800.1755_android.jpg
p2312
aI49
aa(lp2313
V14859476120.15164900.1678_android.jpg
p2314
aI130
aa(lp2315
V14859476280.28341900.1399_android_1485947626948.jpg
p2316
aI190
aa(lp2317
V14859477130.28857500.1720_android.jpg
p2318
aI51
aa(lp2319
V14859477720.25597300.1909_android.jpg
p2320
aI51
aa(lp2321
V14859481230.04182000.1900_android_1485948118103.jpg
p2322
aI39
aa(lp2323
V14859481720.66587900.1383_ios.jpg
p2324
aI55
aa(lp2325
V14859483000.67850200.1173_ios.jpg
p2326
aI41
aa(lp2327
V14859483650.00181300.1611_android_1485948477043.jpg
p2328
aI86
aa(lp2329
V14859483800.74756600.1758_ios.jpg
p2330
aI49
aa(lp2331
V14859483960.87779900.1974_ios.jpg
p2332
aI242
aa(lp2333
V14859484340.51643800.1124_android.jpg
p2334
aI107
aa(lp2335
V14859485440.85496100.1452_android.jpg
p2336
aI124
aa(lp2337
V14859487210.97518500.1526_android_1485948718112.jpg
p2338
aI46
aa(lp2339
V14859488780.53002400.1310_android.jpg
p2340
aI44
aa(lp2341
V14859490170.37024800.1915_ios.jpg
p2342
aI36
aa(lp2343
V14859490740.08315900.1747_ios.jpg
p2344
aI104
aa(lp2345
V14859492270.27227000.1148_android.jpg
p2346
aI51
aa(lp2347
V14859492440.38508400.1579_ios.jpg
p2348
aI32
aa(lp2349
V14859493820.53062500.1633_android_1485949376630.jpg
p2350
aI34
aa(lp2351
V14859495650.17302500.1061_ios.jpg
p2352
aI104
aa(lp2353
V14859495940.98673000.1011_ios.jpg
p2354
aI99
aa(lp2355
V14859496260.91588500.1656_android.jpg
p2356
aI52
aa(lp2357
V14859496600.74675500.1911_ios.jpg
p2358
aI99
aa(lp2359
V14859497530.16114600.1971_android.jpg
p2360
aI53
aa(lp2361
V14859497850.27363300.1137_android_1485949782060.jpg
p2362
aI205
aa(lp2363
V14859498050.00948500.1119_android.jpg
p2364
aI35
aa(lp2365
V14859499660.29302900.1537_android.jpg
p2366
aI36
aa(lp2367
V14859501290.71580700.1203_ios.jpg
p2368
aI32
aa(lp2369
V14859504460.11346900.1400_android.jpg
p2370
aI45
aa(lp2371
V14859504940.00256900.1410_android_1485950490897.jpg
p2372
aI45
aa(lp2373
V14859507310.83993500.1467_android.jpg
p2374
aI51
aa(lp2375
V14859508240.70054500.1378_ios.jpg
p2376
aI205
aa(lp2377
V14859509910.76227900.1238_android.jpg
p2378
aI39
aa(lp2379
V14859510670.52855500.1910_android.jpg
p2380
aI61
aa(lp2381
V14859511120.47463400.1337_android.jpg
p2382
aI39
aa(lp2383
V14859511350.57202600.1841_ios.jpg
p2384
aI56
aa(lp2385
V14859511610.42434800.1026_android.jpg
p2386
aI126
aa(lp2387
V14859511810.89751000.1616_android_1485951177512.jpg
p2388
aI153
aa(lp2389
V14859513500.91803100.1795_ios.jpg
p2390
aI73
aa(lp2391
V14859514770.35401700.1232_ios.jpg
p2392
aI61
aa(lp2393
V14859515670.23462400.1251_android.jpg
p2394
aI61
aa(lp2395
V14859516160.99334900.1124_ios.jpg
p2396
aI103
aa(lp2397
V14859516870.99097000.1951_ios.jpg
p2398
aI103
aa(lp2399
V14859518170.19966100.1899_android.jpg
p2400
aI45
aa(lp2401
V14859518480.94363900.1884_ios.jpg
p2402
aI46
aa(lp2403
V14859519530.42085400.1039_ios.jpg
p2404
aI51
aa(lp2405
V14859519780.16608900.1582_android.jpg
p2406
aI82
aa(lp2407
V14859523100.29373600.1122_android.jpg
p2408
aI45
aa(lp2409
V14859524690.81458200.1459_android_1485952459159.jpg
p2410
aI147
aa(lp2411
V14859525550.59649300.1406_ios.jpg
p2412
aI46
aa(lp2413
V14859528540.93396600.1138_android.jpg
p2414
aI52
aa(lp2415
V14859530090.23942200.1757_android_1485953004034.jpg
p2416
aI205
aa(lp2417
V14859530630.22758800.1910_android_1485953059617.jpg
p2418
aI51
aa(lp2419
V14859531500.27580500.1710_android_1485953134971.jpg
p2420
aI46
aa(lp2421
V14859532110.04071600.1086_ios.jpg
p2422
aI41
aa(lp2423
V14859535850.85143900.1952_android.jpg
p2424
aI71
aa(lp2425
V14859537770.88151300.1125_ios.jpg
p2426
aI35
aa(lp2427
V14859539570.11614500.1261_ios.jpg
p2428
aI51
aa(lp2429
V14859541520.74099300.1975_ios.jpg
p2430
aI53
aa(lp2431
V14859542570.94469400.1208_android.jpg
p2432
aI42
aa(lp2433
V14859544220.97518400.1903_ios.jpg
p2434
aI84
aa(lp2435
V14859545000.18527200.1699_android.jpg
p2436
aI94
aa(lp2437
V14859546400.82937400.1138_android.jpg
p2438
aI32
aa(lp2439
V14859546750.04305500.1431_ios.jpg
p2440
aI56
aa(lp2441
V14859547450.20555200.1896_android.jpg
p2442
aI89
aa(lp2443
V14859547790.37387700.1685_android.jpg
p2444
aI84
aa(lp2445
V14859548780.12320300.1608_ios.jpg
p2446
aI84
aa(lp2447
V14859550120.17738700.1242_ios.jpg
p2448
aI190
aa(lp2449
V14859550980.35796000.1262_ios.jpg
p2450
aI56
aa(lp2451
V14859551270.67109400.1106_android.jpg
p2452
aI205
aa(lp2453
V14859552320.51308300.1294_android.jpg
p2454
aI42
aa(lp2455
V14859552690.00252200.1047_android.jpg
p2456
aI205
aa(lp2457
V14859553740.10360100.1345_android.jpg
p2458
aI178
aa(lp2459
V14859555460.36179300.1586_android.jpg
p2460
aI71
aa(lp2461
V14859560600.01083500.1378_android.jpg
p2462
aI47
aa(lp2463
V14859561760.65480600.1426_ios.jpg
p2464
aI42
aa(lp2465
V14859562040.18781200.1257_android.jpg
p2466
aI51
aa(lp2467
V14859562660.27535000.1526_android.jpg
p2468
aI32
aa(lp2469
V14859562930.29911900.1537_android_1485956287307.jpg
p2470
aI83
aa(lp2471
V14859567610.21249800.1421_ios.jpg
p2472
aI61
aa(lp2473
V14859569840.28704800.1967_android_1485956983354.jpg
p2474
aI58
aa(lp2475
V14859571360.45646800.1800_ios.jpg
p2476
aI43
aa(lp2477
V14859573200.63674700.1113_android.jpg
p2478
aI84
aa(lp2479
V14859574370.00220300.1916_android.jpg
p2480
aI42
aa(lp2481
V14859574610.46008700.1884_android.jpg
p2482
aI145
aa(lp2483
V14859575130.92757700.1768_ios.jpg
p2484
aI146
aa(lp2485
V14859577560.86545800.1549_android_1485957753046.jpg
p2486
aI242
aa(lp2487
V14859579540.07876500.1672_android_1485957950694.jpg
p2488
aI242
aa(lp2489
V14859581040.97126800.1742_android.jpg
p2490
aI64
aa(lp2491
V14859581620.11693500.1529_ios.jpg
p2492
aI52
aa(lp2493
V14859581940.68119300.1084_ios.jpg
p2494
aI52
aa(lp2495
V14859583420.38905300.1453_android_1485958340314.jpg
p2496
aI57
aa(lp2497
V14859585560.29754100.1294_android.jpg
p2498
aI101
aa(lp2499
V14859586180.21136900.1513_android_1485958609225.jpg
p2500
aI57
aa(lp2501
V14859587090.33546500.1061_android_1485958706153.jpg
p2502
aI57
aa(lp2503
V14859589420.01888300.1589_android_1485958939481.jpg
p2504
aI84
aa(lp2505
V14859590160.43762100.1735_android.jpg
p2506
aI51
aa(lp2507
V14859595170.40593000.1988_android.jpg
p2508
aI148
aa(lp2509
V14859596230.51322500.1627_android_1485959621866.jpg
p2510
aI83
aa(lp2511
V14859597970.22532400.1050_android.jpg
p2512
aI91
aa(lp2513
V14859601240.36347500.1088_android.jpg
p2514
aI51
aa(lp2515
V14859601860.14954600.1283_ios.jpg
p2516
aI41
aa(lp2517
V14859605390.13196800.1995_android.jpg
p2518
aI60
aa(lp2519
V14859606200.34674100.1133_android.jpg
p2520
aI45
aa(lp2521
V14859607200.46501000.1825_ios.jpg
p2522
aI55
aa(lp2523
V14859607540.93762500.1689_ios.jpg
p2524
aI60
aa(lp2525
V14859611660.11497900.1273_android.jpg
p2526
aI57
aa(lp2527
V14859614710.02754000.1807_android.jpg
p2528
aI51
aa(lp2529
V14859616370.65947700.1796_ios.jpg
p2530
aI178
aa(lp2531
V14859618450.10797400.1245_android.jpg
p2532
aI91
aa(lp2533
V14859619760.35783300.1351_android_1485961973337.jpg
p2534
aI94
aa(lp2535
V14859623130.00541900.1515_android.jpg
p2536
aI205
aa(lp2537
V14859626060.52165300.1387_android.jpg
p2538
aI126
aa(lp2539
V14859628850.77224000.1002_ios.jpg
p2540
aI56
aa(lp2541
V14859637320.76022300.1733_ios.jpg
p2542
aI32
aa(lp2543
V14859643930.31965600.1738_android_1485964391132.jpg
p2544
aI79
aa(lp2545
V14859646060.14389400.1191_android.jpg
p2546
aI79
aa(lp2547
V14859648770.91379700.1958_android.jpg
p2548
aI40
aa(lp2549
V14859650170.75666700.1946_android.jpg
p2550
aI40
aa(lp2551
V14859652130.44368700.1278_android.jpg
p2552
aI40
aa(lp2553
V14859654070.34593700.1063_ios.jpg
p2554
aI58
aa(lp2555
V14859654710.21832400.1332_ios.jpg
p2556
aI77
aa(lp2557
V14859655280.83500900.1829_ios.jpg
p2558
aI192
aa(lp2559
V14859658260.19859600.1564_android.jpg
p2560
aI99
aa(lp2561
V14859660230.19123800.1746_android.jpg
p2562
aI151
aa(lp2563
V14859661560.22163700.1053_android.jpg
p2564
aI140
aa(lp2565
V14859661960.42049300.1999_android.jpg
p2566
aI40
aa(lp2567
V14859663190.93221100.1571_android.jpg
p2568
aI48
aa(lp2569
V14859672390.25730700.1376_ios.jpg
p2570
aI184
aa(lp2571
V14859674270.74977400.1544_ios.jpg
p2572
aI108
aa(lp2573
V14859678460.02683400.1690_android.jpg
p2574
aI123
aa(lp2575
V14859685630.42596000.1671_ios.jpg
p2576
aI63
aa(lp2577
V14859692740.82444700.1226_android.jpg
p2578
aI175
aa(lp2579
V14859698480.05369200.1124_ios.jpg
p2580
aI63
aa(lp2581
V14859702280.32483000.1341_android_1485970226126.jpg
p2582
aI62
aa(lp2583
V14859703580.10658000.1549_android.jpg
p2584
aI46
aa(lp2585
V14859717100.32431400.1472_android.jpg
p2586
aI42
aa(lp2587
V14859790010.19909600.1669_android.jpg
p2588
aI38
aatRp2589
.